cdebian_linux.config
ConfigCore
p0
(tRp1
(Vbase
p2
tp3
(dp4
Varches
p5
(lp6
Valpha
p7
aVamd64
p8
aVarm64
p9
aVarmel
p10
aVarmhf
p11
aVhppa
p12
aVi386
p13
aVia64
p14
aVm68k
p15
aVmips
p16
aVmips64
p17
aVmips64el
p18
aVmips64r6el
p19
aVmipsel
p20
aVpowerpc
p21
aVppc64
p22
aVppc64el
p23
aVriscv64
p24
aVs390x
p25
aVsh4
p26
aVsparc64
p27
aVx32
p28
asVcompiler
p29
Vgcc-13
p30
sVfeaturesets
p31
(lp32
Vnone
p33
aVrt
p34
ass(Vbuild
p35
tp36
(dp37
Vsigned-code
p38
I00
ss(Vbase
p39
NVrt
p40
tp41
(dp42
Venabled
p43
I01
ss(Vdescription
p44
tp45
(dp46
Vpart-long-up
p47
VThis kernel is not suitable for SMP (multi-processor, multi-core or hyper-threaded) systems.
p48
ss(Vimage
p49
tp50
(dp51
Vdepends
p52
(lp53
Vinitramfs-tools (>= 0.120+deb8u2) | linux-initramfs-tool
p54
asVbreaks
p55
(lp56
Vfwupdate (<< 12-7)
p57
aVwireless-regdb (<< 2019.06.03-1~)
p58
asVrecommends
p59
(lp60
Vapparmor
p61
ass(Vbase
p62
Valpha
p63
tp64
(dp65
Vdefault-flavour
p66
Valpha-smp
p67
sVkernel-arch
p68
Valpha
p69
sVfeaturesets
p70
(lp71
Vnone
p72
ass(Vbuild
p73
g63
tp74
(dp75
Vimage-file
p76
Varch/alpha/boot/vmlinux.gz
p77
ss(Vimage
p78
g63
tp79
(dp80
Vsuggests
p81
(lp82
Vaboot
p83
aVfdutils
p84
asVinstall-stem
p85
Vvmlinuz
p86
ss(Vdescription
p87
g63
NValpha-generic
p88
tp89
(dp90
Vhardware
p91
VAlpha
p92
sVhardware-long
p93
VDEC Alpha systems with extended kernel start address (Wildfire, Titan, Marvel)
p94
ss(Vpackages
p95
g63
NValpha-generic
p96
tp97
(dp98
Vinstaller
p99
I01
ss(Vdescription
p100
g63
NValpha-smp
p101
tp102
(dp103
Vhardware
p104
VAlpha SMP
p105
sVhardware-long
p106
VDEC Alpha SMP systems with extended kernel start address (Wildfire, Titan, Marvel)
p107
ss(Vbase
p108
g63
g72
tp109
(dp110
Vflavours
p111
(lp112
Valpha-generic
p113
aValpha-smp
p114
asVimplicit-flavour
p115
I01
ss(Vbase
p116
Vamd64
p117
tp118
(dp119
Vfeaturesets
p120
(lp121
Vnone
p122
aVrt
p123
asVkernel-arch
p124
Vx86
p125
ss(Vbuild
p126
g117
tp127
(dp128
Vimage-file
p129
Varch/x86/boot/bzImage
p130
sVsigned-code
p131
I01
sVvdso
p132
I01
ss(Vimage
p133
g117
tp134
(dp135
Vsuggests
p136
(lp137
Vgrub-pc | grub-efi-amd64 | extlinux
p138
asVinstall-stem
p139
Vvmlinuz
p140
ss(Vdescription
p141
g117
NVamd64
p142
tp143
(dp144
Vhardware
p145
V64-bit PCs
p146
sVhardware-long
p147
VPCs with AMD64, Intel 64 or VIA Nano processors
p148
ss(Vdescription
p149
g117
NVcloud-amd64
p150
tp151
(dp152
Vhardware
p153
Vx86-64 cloud
p154
sVhardware-long
p155
Vcloud platforms including Amazon EC2, Microsoft Azure, and Google Compute Engine
p156
ss(Vbase
p157
g117
Vnone
p158
tp159
(dp160
Vflavours
p161
(lp162
Vamd64
p163
aVcloud-amd64
p164
asVdefault-flavour
p165
Vamd64
p166
sVquick-flavour
p167
Vcloud-amd64
p168
ss(Vpackages
p169
g117
g158
Vamd64
p170
tp171
(dp172
Vinstaller
p173
I01
ss(Vimage
p174
g117
g158
Vcloud-amd64
p175
tp176
(dp177
Vconfigs
p178
(lp179
Vconfig.cloud
p180
aVamd64/config.cloud-amd64
p181
ass(Vbase
p182
g117
Vrt
p183
tp184
(dp185
Vflavours
p186
(lp187
Vamd64
p188
ass(Vbase
p189
Varm64
p190
tp191
(dp192
Vcompat-deb-arch
p193
Varmhf
p194
sVcompat-gnu-type
p195
Varm-linux-gnueabihf
p196
sVkernel-arch
p197
Varm64
p198
sVfeaturesets
p199
(lp200
Vnone
p201
aVrt
p202
ass(Vbuild
p203
g190
tp204
(dp205
Vimage-file
p206
Varch/arm64/boot/Image
p207
sVsigned-code
p208
I01
sVvdso
p209
I01
ss(Vimage
p210
g190
tp211
(dp212
Vinstall-stem
p213
Vvmlinuz
p214
ss(Vdescription
p215
g190
NVarm64
p216
tp217
(dp218
Vhardware
p219
V64-bit ARMv8 machines
p220
ss(Vdescription
p221
g190
NVcloud-arm64
p222
tp223
(dp224
Vhardware
p225
Varm64 cloud
p226
sVhardware-long
p227
Vcloud platforms supporting arm64 virtual machines
p228
ss(Vimage
p229
g190
NVarm64
p230
tp231
(dp232
s(Vbase
p233
g190
Vnone
p234
tp235
(dp236
Vflavours
p237
(lp238
Varm64
p239
aVcloud-arm64
p240
asVdefault-flavour
p241
Varm64
p242
sVquick-flavour
p243
Vcloud-arm64
p244
ss(Vpackages
p245
g190
g234
Varm64
p246
tp247
(dp248
Vinstaller
p249
I01
ss(Vimage
p250
g190
g234
Vcloud-arm64
p251
tp252
(dp253
Vconfigs
p254
(lp255
Vconfig.cloud
p256
aVarm64/config.cloud-arm64
p257
ass(Vbase
p258
g190
Vrt
p259
tp260
(dp261
Vflavours
p262
(lp263
Varm64
p264
ass(Vbase
p265
Varmel
p266
tp267
(dp268
Vkernel-arch
p269
Varm
p270
sg70
(lp271
g72
ass(Vbuild
p272
g266
tp273
(dp274
Vimage-file
p275
Varch/arm/boot/zImage
p276
sVuncompressed-image-file
p277
Varch/arm/boot/Image
p278
ss(Vimage
p279
g266
tp280
(dp281
Vinstall-stem
p282
Vvmlinuz
p283
ss(Vdescription
p284
g266
NVrpi
p285
tp286
(dp287
Vhardware
p288
VRaspberry Pi Zero, Zero W and 1
p289
sVhardware-long
p290
VRaspberry Pi Zero, Zero W and 1 based systems
p291
ss(g108
g266
g72
tp292
(dp293
g111
(lp294
Vrpi
p295
asg115
I01
ss(Vbase
p296
Varmhf
p297
tp298
(dp299
Vfeaturesets
p300
(lp301
Vnone
p302
aVrt
p303
asVkernel-arch
p304
Varm
p305
ss(Vbuild
p306
g297
tp307
(dp308
Vimage-file
p309
Varch/arm/boot/zImage
p310
sVvdso
p311
I01
ss(Vimage
p312
g297
tp313
(dp314
Vinstall-stem
p315
Vvmlinuz
p316
ss(Vdescription
p317
g297
NVarmmp
p318
tp319
(dp320
Vhardware
p321
VARMv7 multiplatform compatible SoCs
p322
sVhardware-long
p323
VARMv7 multiplatform kernel. See https://wiki.debian.org/DebianKernel/ARMMP for details of supported platforms
p324
ss(Vdescription
p325
g297
NVarmmp-lpae
p326
tp327
(dp328
Vhardware
p329
VARMv7 multiplatform compatible SoCs supporting LPAE
p330
sVhardware-long
p331
VARMv7 multiplatform kernel supporting LPAE. See https://wiki.debian.org/DebianKernel/ARMMP for details of supported platforms.
p332
ss(Vbase
p333
g297
Vnone
p334
tp335
(dp336
Vflavours
p337
(lp338
Varmmp
p339
aVarmmp-lpae
p340
asVdefault-flavour
p341
Varmmp
p342
ss(Vpackages
p343
g297
g334
Varmmp
p344
tp345
(dp346
Vinstaller
p347
I01
ss(Vbase
p348
g297
Vrt
p349
tp350
(dp351
Vflavours
p352
(lp353
Varmmp
p354
ass(Vbase
p355
Vhppa
p356
tp357
(dp358
Vdefault-flavour
p359
Vparisc
p360
sVkernel-arch
p361
Vparisc
p362
sg70
(lp363
g72
ass(Vbuild
p364
g356
tp365
(dp366
Vimage-file
p367
Varch/parisc/boot/bzImage
p368
ss(Vimage
p369
g356
tp370
(dp371
Vsuggests
p372
(lp373
Vpalo
p374
asVinstall-stem
p375
Vvmlinuz
p376
ss(Vdescription
p377
g356
NVparisc
p378
tp379
(dp380
Vhardware
p381
V32-bit PA-RISC
p382
sVhardware-long
p383
VHP PA-RISC 32-bit systems with max 4 GB RAM
p384
ss(Vpackages
p385
g356
NVparisc
p386
tp387
(dp388
Vinstaller
p389
I01
ss(Vbase
p390
g356
NVparisc64
p391
tp392
(dp393
Vcflags
p394
V-fno-cse-follow-jumps
p395
sVkernel-deb-arch
p396
Vundefined
p397
sVkernel-gnu-type
p398
Vhppa64-linux-gnu
p399
sVcompat-deb-arch
p400
Vhppa
p401
sVcompat-gnu-type
p402
Vhppa-linux-gnu
p403
ss(Vdescription
p404
g356
NVparisc64
p405
tp406
(dp407
Vhardware
p408
V64-bit PA-RISC
p409
sVhardware-long
p410
VHP PA-RISC 64-bit systems with support for more than 4 GB RAM
p411
ss(Vpackages
p412
g356
NVparisc64
p413
tp414
(dp415
Vinstaller
p416
I01
ss(g108
g356
g72
tp417
(dp418
g111
(lp419
Vparisc
p420
aVparisc64
p421
asg115
I01
ss(Vbase
p422
Vi386
p423
tp424
(dp425
Vfeaturesets
p426
(lp427
Vnone
p428
aVrt
p429
asVkernel-arch
p430
Vx86
p431
ss(Vbuild
p432
g423
tp433
(dp434
Vimage-file
p435
Varch/x86/boot/bzImage
p436
sVvdso
p437
I01
ss(Vdescription
p438
g423
tp439
(dp440
Vpart-long-pae
p441
VThis kernel requires PAE (Physical Address Extension). This feature is supported by the Intel Pentium Pro/II/III/4/4M/D, Xeon, Core and Atom; AMD Geode NX, Athlon (K7), Duron, Opteron, Sempron, Turion or Phenom; Transmeta Efficeon; VIA C7; and some other processors.
p442
ss(Vimage
p443
g423
tp444
(dp445
Vsuggests
p446
(lp447
Vgrub-pc | grub-efi-ia32 | extlinux
p448
asVinstall-stem
p449
Vvmlinuz
p450
ss(Vdescription
p451
g423
NV686
p452
tp453
(dp454
Vhardware
p455
Volder PCs
p456
sVhardware-long
p457
VPCs with one or more processors not supporting PAE
p458
ss(Vdescription
p459
g423
NV686-pae
p460
tp461
(dp462
Vhardware
p463
Vmodern PCs
p464
sVhardware-long
p465
VPCs with one or more processors supporting PAE
p466
sVparts
p467
(lp468
Vpae
p469
ass(Vbase
p470
g423
Vnone
p471
tp472
(dp473
Vflavours
p474
(lp475
V686
p476
aV686-pae
p477
asVdefault-flavour
p478
V686-pae
p479
ss(Vpackages
p480
g423
g471
V686
p481
tp482
(dp483
Vinstaller
p484
I01
ss(Vpackages
p485
g423
g471
V686-pae
p486
tp487
(dp488
Vinstaller
p489
I01
ss(Vbase
p490
g423
Vrt
p491
tp492
(dp493
Vflavours
p494
(lp495
V686-pae
p496
ass(Vbase
p497
Via64
p498
tp499
(dp500
Vdefault-flavour
p501
Vitanium
p502
sVkernel-arch
p503
Via64
p504
sVcompiler
p505
Vgcc-12
p506
sg70
(lp507
g72
ass(Vbuild
p508
g498
tp509
(dp510
Vimage-file
p511
Vvmlinux.gz
p512
ss(Vimage
p513
g498
tp514
(dp515
Vsuggests
p516
(lp517
Vgrub-efi-ia64
p518
asVinstall-stem
p519
Vvmlinuz
p520
ss(Vdescription
p521
g498
NVitanium
p522
tp523
(dp524
Vhardware
p525
VItanium (Merced)
p526
sVhardware-long
p527
Vsystems with original Itanium (Merced) processors
p528
ss(Vpackages
p529
g498
NVitanium
p530
tp531
(dp532
Vinstaller
p533
I01
ss(Vdescription
p534
g498
NVmckinley
p535
tp536
(dp537
Vhardware
p538
VItanium 2+
p539
sVhardware-long
p540
Vsystems with Itanium 2 or 9300/9500/9700-series processors
p541
ss(g108
g498
g72
tp542
(dp543
g111
(lp544
Vitanium
p545
aVmckinley
p546
asg115
I01
ss(Vbase
p547
Vm68k
p548
tp549
(dp550
Vcflags
p551
V-ffreestanding
p552
sVdefault-flavour
p553
Vm68k
p554
sVkernel-arch
p555
Vm68k
p556
sg70
(lp557
g72
ass(Vbuild
p558
g548
tp559
(dp560
Vimage-file
p561
Vvmlinux
p562
ss(Vimage
p563
g548
tp564
(dp565
Vsuggests
p566
(lp567
Vvmelilo
p568
aVfdutils
p569
asVinstall-stem
p570
Vvmlinux
p571
ss(Vdescription
p572
g548
NVm68k
p573
tp574
(dp575
Vhardware
p576
VMotorola MC68020+ family
p577
ss(Vpackages
p578
g548
NVm68k
p579
tp580
(dp581
Vinstaller
p582
I01
ss(g108
g548
g72
tp583
(dp584
g111
(lp585
Vm68k
p586
asg115
I01
ss(Vbase
p587
Vmips
p588
tp589
(dp590
Vkernel-arch
p591
Vmips
p592
sg70
(lp593
g72
ass(Vbuild
p594
g588
tp595
(dp596
Vimage-file
p597
Vvmlinuz
p598
ss(Vimage
p599
g588
tp600
(dp601
Vinstall-stem
p602
Vvmlinuz
p603
ss(Vdescription
p604
g588
NV4kc-malta
p605
tp606
(dp607
Vhardware
p608
VMIPS Malta
p609
sVhardware-long
p610
VMIPS Malta boards
p611
ss(Vimage
p612
g588
NV4kc-malta
p613
tp614
(dp615
Vconfigs
p616
(lp617
Vkernelarch-mips/config.malta
p618
aVkernelarch-mips/config.mips32r2
p619
ass(Vpackages
p620
g588
NV4kc-malta
p621
tp622
(dp623
Vinstaller
p624
I01
ss(Vdescription
p625
g588
NVmips32r2eb
p626
tp627
(dp628
Vhardware
p629
VMIPS Generic (mips32r2eb)
p630
sVhardware-long
p631
VMIPS Generic platform (mips32r2eb)
p632
ss(Vimage
p633
g588
NVmips32r2eb
p634
tp635
(dp636
Vconfigs
p637
(lp638
Vkernelarch-mips/config.boston
p639
aVkernelarch-mips/config.mips32r2
p640
ass(Vpackages
p641
g588
NVmips32r2eb
p642
tp643
(dp644
Vinstaller
p645
I01
ss(Vdescription
p646
g588
NVocteon
p647
tp648
(dp649
Vhardware
p650
VOcteon
p651
sVhardware-long
p652
VCavium Networks Octeon
p653
ss(Vbuild
p654
g588
NVocteon
p655
tp656
(dp657
Vimage-file
p658
Vvmlinux
p659
ss(Vimage
p660
g588
NVocteon
p661
tp662
(dp663
Vinstall-stem
p664
Vvmlinux
p665
sVconfigs
p666
(lp667
Vkernelarch-mips/config.octeon
p668
ass(Vpackages
p669
g588
NVocteon
p670
tp671
(dp672
Vinstaller
p673
I01
ss(g108
g588
g72
tp674
(dp675
g111
(lp676
V4kc-malta
p677
aVmips32r2eb
p678
aVocteon
p679
asg115
I01
ss(Vbase
p680
Vmips64
p681
tp682
(dp683
Vkernel-arch
p684
Vmips
p685
sg70
(lp686
g72
ass(Vbuild
p687
g681
tp688
(dp689
Vimage-file
p690
Vvmlinuz
p691
ss(Vimage
p692
g681
tp693
(dp694
Vinstall-stem
p695
Vvmlinuz
p696
ss(Vdescription
p697
g681
NV5kc-malta
p698
tp699
(dp700
Vhardware
p701
VMIPS Malta
p702
sVhardware-long
p703
VMIPS Malta boards
p704
ss(Vimage
p705
g681
NV5kc-malta
p706
tp707
(dp708
Vconfigs
p709
(lp710
Vkernelarch-mips/config.malta
p711
aVkernelarch-mips/config.mips64r2
p712
ass(Vpackages
p713
g681
NV5kc-malta
p714
tp715
(dp716
Vinstaller
p717
I01
ss(Vdescription
p718
g681
NVmips64r2eb
p719
tp720
(dp721
Vhardware
p722
VMIPS Generic (mips64r2eb)
p723
sVhardware-long
p724
VMIPS Generic platform (mips64r2eb)
p725
ss(Vimage
p726
g681
NVmips64r2eb
p727
tp728
(dp729
Vconfigs
p730
(lp731
Vkernelarch-mips/config.boston
p732
aVkernelarch-mips/config.mips64r2
p733
ass(Vpackages
p734
g681
NVmips64r2eb
p735
tp736
(dp737
Vinstaller
p738
I01
ss(Vdescription
p739
g681
NVocteon
p740
tp741
(dp742
Vhardware
p743
VOcteon
p744
sVhardware-long
p745
VCavium Networks Octeon
p746
ss(Vbuild
p747
g681
NVocteon
p748
tp749
(dp750
Vimage-file
p751
Vvmlinux
p752
ss(Vimage
p753
g681
NVocteon
p754
tp755
(dp756
Vinstall-stem
p757
Vvmlinux
p758
sVconfigs
p759
(lp760
Vkernelarch-mips/config.octeon
p761
ass(Vpackages
p762
g681
NVocteon
p763
tp764
(dp765
Vinstaller
p766
I01
ss(g108
g681
g72
tp767
(dp768
g111
(lp769
V5kc-malta
p770
aVmips64r2eb
p771
aVocteon
p772
asg115
I01
ss(Vbase
p773
Vmips64el
p774
tp775
(dp776
Vkernel-arch
p777
Vmips
p778
sg70
(lp779
g72
ass(Vbuild
p780
g774
tp781
(dp782
Vimage-file
p783
Vvmlinuz
p784
ss(Vimage
p785
g774
tp786
(dp787
Vinstall-stem
p788
Vvmlinuz
p789
ss(Vdescription
p790
g774
NV5kc-malta
p791
tp792
(dp793
Vhardware
p794
VMIPS Malta
p795
sVhardware-long
p796
VMIPS Malta boards
p797
ss(Vimage
p798
g774
NV5kc-malta
p799
tp800
(dp801
Vconfigs
p802
(lp803
Vkernelarch-mips/config.malta
p804
aVkernelarch-mips/config.mips64r2
p805
ass(Vpackages
p806
g774
NV5kc-malta
p807
tp808
(dp809
Vinstaller
p810
I01
ss(Vdescription
p811
g774
NVmips64r2el
p812
tp813
(dp814
Vhardware
p815
VMIPS Generic (mips64r2el)
p816
sVhardware-long
p817
VMIPS Generic platform (mips64r2el)
p818
ss(Vimage
p819
g774
NVmips64r2el
p820
tp821
(dp822
Vconfigs
p823
(lp824
Vkernelarch-mips/config.boston
p825
aVkernelarch-mips/config.mips64r2
p826
ass(Vpackages
p827
g774
NVmips64r2el
p828
tp829
(dp830
Vinstaller
p831
I01
ss(Vdescription
p832
g774
NVloongson-3
p833
tp834
(dp835
Vhardware
p836
VLoongson 3A/3B
p837
sVhardware-long
p838
VLoongson 3A or 3B based systems (e.g. from Loongson or Lemote)
p839
ss(Vimage
p840
g774
NVloongson-3
p841
tp842
(dp843
Vrecommends
p844
(lp845
Vpmon-update
p846
asVconfigs
p847
(lp848
Vkernelarch-mips/config.loongson-3
p849
ass(Vpackages
p850
g774
NVloongson-3
p851
tp852
(dp853
Vinstaller
p854
I01
ss(Vdescription
p855
g774
NVocteon
p856
tp857
(dp858
Vhardware
p859
VOcteon
p860
sVhardware-long
p861
VCavium Networks Octeon
p862
ss(Vbuild
p863
g774
NVocteon
p864
tp865
(dp866
Vimage-file
p867
Vvmlinux
p868
ss(Vimage
p869
g774
NVocteon
p870
tp871
(dp872
Vinstall-stem
p873
Vvmlinux
p874
sVconfigs
p875
(lp876
Vkernelarch-mips/config.octeon
p877
ass(Vpackages
p878
g774
NVocteon
p879
tp880
(dp881
Vinstaller
p882
I01
ss(g108
g774
g72
tp883
(dp884
g111
(lp885
V5kc-malta
p886
aVmips64r2el
p887
aVloongson-3
p888
aVocteon
p889
asg115
I01
ss(Vbase
p890
Vmips64r6el
p891
tp892
(dp893
Vkernel-arch
p894
Vmips
p895
sg70
(lp896
g72
ass(Vbuild
p897
g891
tp898
(dp899
Vimage-file
p900
Vvmlinuz
p901
ss(Vimage
p902
g891
tp903
(dp904
Vinstall-stem
p905
Vvmlinuz
p906
ss(Vdescription
p907
g891
NVmips64r6el
p908
tp909
(dp910
Vhardware
p911
VMIPS Generic (mips64r6el)
p912
sVhardware-long
p913
VMIPS Generic platform (mips64r6el)
p914
ss(Vimage
p915
g891
NVmips64r6el
p916
tp917
(dp918
Vconfigs
p919
(lp920
Vkernelarch-mips/config.boston
p921
aVkernelarch-mips/config.mips64r6
p922
ass(Vpackages
p923
g891
NVmips64r6el
p924
tp925
(dp926
Vinstaller
p927
I01
ss(g108
g891
g72
tp928
(dp929
g111
(lp930
Vmips64r6el
p931
asg115
I01
ss(Vbase
p932
Vmipsel
p933
tp934
(dp935
Vkernel-arch
p936
Vmips
p937
sg70
(lp938
g72
ass(Vbuild
p939
g933
tp940
(dp941
Vimage-file
p942
Vvmlinuz
p943
ss(Vimage
p944
g933
tp945
(dp946
Vinstall-stem
p947
Vvmlinuz
p948
ss(Vdescription
p949
g933
NV4kc-malta
p950
tp951
(dp952
Vhardware
p953
VMIPS Malta
p954
sVhardware-long
p955
VMIPS Malta boards
p956
ss(Vimage
p957
g933
NV4kc-malta
p958
tp959
(dp960
Vconfigs
p961
(lp962
Vkernelarch-mips/config.malta
p963
aVkernelarch-mips/config.mips32r2
p964
ass(Vpackages
p965
g933
NV4kc-malta
p966
tp967
(dp968
Vinstaller
p969
I01
ss(Vdescription
p970
g933
NVmips32r2el
p971
tp972
(dp973
Vhardware
p974
VMIPS Generic (mips32r2el)
p975
sVhardware-long
p976
VMIPS Generic platform (mips32r2el)
p977
ss(Vimage
p978
g933
NVmips32r2el
p979
tp980
(dp981
Vconfigs
p982
(lp983
Vkernelarch-mips/config.boston
p984
aVkernelarch-mips/config.mips32r2
p985
ass(Vpackages
p986
g933
NVmips32r2el
p987
tp988
(dp989
Vinstaller
p990
I01
ss(Vdescription
p991
g933
NVloongson-3
p992
tp993
(dp994
Vhardware
p995
VLoongson 3A/3B
p996
sVhardware-long
p997
VLoongson 3A or 3B based systems (e.g. from Loongson or Lemote)
p998
ss(Vimage
p999
g933
NVloongson-3
p1000
tp1001
(dp1002
Vrecommends
p1003
(lp1004
Vpmon-update
p1005
asVconfigs
p1006
(lp1007
Vkernelarch-mips/config.loongson-3
p1008
ass(Vpackages
p1009
g933
NVloongson-3
p1010
tp1011
(dp1012
Vinstaller
p1013
I01
ss(Vdescription
p1014
g933
NVocteon
p1015
tp1016
(dp1017
Vhardware
p1018
VOcteon
p1019
sVhardware-long
p1020
VCavium Networks Octeon
p1021
ss(Vbuild
p1022
g933
NVocteon
p1023
tp1024
(dp1025
Vimage-file
p1026
Vvmlinux
p1027
ss(Vimage
p1028
g933
NVocteon
p1029
tp1030
(dp1031
Vinstall-stem
p1032
Vvmlinux
p1033
sVconfigs
p1034
(lp1035
Vkernelarch-mips/config.octeon
p1036
ass(Vpackages
p1037
g933
NVocteon
p1038
tp1039
(dp1040
Vinstaller
p1041
I01
ss(g108
g933
g72
tp1042
(dp1043
g111
(lp1044
V4kc-malta
p1045
aVmips32r2el
p1046
aVloongson-3
p1047
aVocteon
p1048
asg115
I01
ss(Vbase
p1049
Vpowerpc
p1050
tp1051
(dp1052
Vkernel-arch
p1053
Vpowerpc
p1054
sg70
(lp1055
g72
ass(Vbuild
p1056
g1050
tp1057
(dp1058
Vimage-file
p1059
Vvmlinux
p1060
ss(Vimage
p1061
g1050
tp1062
(dp1063
Vconfigs
p1064
(lp1065
sVsuggests
p1066
(lp1067
Vmkvmlinuz
p1068
aVgrub-ieee1275
p1069
asVinstall-stem
p1070
Vvmlinux
p1071
ss(Vdescription
p1072
g1050
NVpowerpc
p1073
tp1074
(dp1075
Vhardware
p1076
Vuniprocessor 32-bit PowerPC
p1077
ss(Vpackages
p1078
g1050
NVpowerpc
p1079
tp1080
(dp1081
Vinstaller
p1082
I01
ss(Vdescription
p1083
g1050
NVpowerpc-smp
p1084
tp1085
(dp1086
Vhardware
p1087
Vmultiprocessor 32-bit PowerPC
p1088
ss(Vimage
p1089
g1050
NVpowerpc-smp
p1090
tp1091
(dp1092
Vconfigs
p1093
(lp1094
Vpowerpc/config.powerpc
p1095
aVpowerpc/config.powerpc-smp
p1096
ass(Vdescription
p1097
g1050
NVpowerpc64
p1098
tp1099
(dp1100
Vhardware
p1101
V64-bit PowerPC
p1102
ss(Vimage
p1103
g1050
NVpowerpc64
p1104
tp1105
(dp1106
Vconfigs
p1107
(lp1108
Vkernelarch-powerpc/config-arch-64
p1109
aVkernelarch-powerpc/config-arch-64-be
p1110
ass(Vpackages
p1111
g1050
NVpowerpc64
p1112
tp1113
(dp1114
Vinstaller
p1115
I01
ss(g108
g1050
g72
tp1116
(dp1117
g111
(lp1118
Vpowerpc
p1119
aVpowerpc-smp
p1120
aVpowerpc64
p1121
asg115
I01
ss(Vbase
p1122
Vppc64
p1123
tp1124
(dp1125
Vdefault-flavour
p1126
Vpowerpc64
p1127
sVkernel-arch
p1128
Vpowerpc
p1129
sg70
(lp1130
g72
ass(Vbuild
p1131
g1123
tp1132
(dp1133
Vimage-file
p1134
Vvmlinux
p1135
ss(Vimage
p1136
g1123
tp1137
(dp1138
Vconfigs
p1139
(lp1140
sVsuggests
p1141
(lp1142
Vmkvmlinuz
p1143
aVgrub-ieee1275
p1144
asVinstall-stem
p1145
Vvmlinux
p1146
ss(Vdescription
p1147
g1123
NVpowerpc64
p1148
tp1149
(dp1150
Vhardware
p1151
V64-bit PowerPC
p1152
ss(Vimage
p1153
g1123
NVpowerpc64
p1154
tp1155
(dp1156
Vconfigs
p1157
(lp1158
Vkernelarch-powerpc/config-arch-64
p1159
aVkernelarch-powerpc/config-arch-64-be
p1160
ass(Vpackages
p1161
g1123
NVpowerpc64
p1162
tp1163
(dp1164
Vinstaller
p1165
I01
ss(g108
g1123
g72
tp1166
(dp1167
g111
(lp1168
Vpowerpc64
p1169
asg115
I01
ss(Vbase
p1170
Vppc64el
p1171
tp1172
(dp1173
Vdefault-flavour
p1174
Vpowerpc64le
p1175
sVkernel-arch
p1176
Vpowerpc
p1177
sg70
(lp1178
g72
ass(Vbuild
p1179
g1171
tp1180
(dp1181
Vimage-file
p1182
Vvmlinux
p1183
ss(Vimage
p1184
g1171
tp1185
(dp1186
Vconfigs
p1187
(lp1188
sVsuggests
p1189
(lp1190
Vmkvmlinuz
p1191
aVgrub-ieee1275
p1192
asVinstall-stem
p1193
Vvmlinux
p1194
ss(Vdescription
p1195
g1171
NVpowerpc64le
p1196
tp1197
(dp1198
Vhardware
p1199
VLittle-endian 64-bit PowerPC
p1200
ss(Vimage
p1201
g1171
NVpowerpc64le
p1202
tp1203
(dp1204
Vconfigs
p1205
(lp1206
Vkernelarch-powerpc/config-arch-64
p1207
aVkernelarch-powerpc/config-arch-64-le
p1208
ass(Vpackages
p1209
g1171
NVpowerpc64le
p1210
tp1211
(dp1212
Vinstaller
p1213
I01
ss(g108
g1171
g72
tp1214
(dp1215
g111
(lp1216
Vpowerpc64le
p1217
asg115
I01
ss(Vbase
p1218
Vriscv64
p1219
tp1220
(dp1221
Vkernel-arch
p1222
Vriscv
p1223
sVfeaturesets
p1224
(lp1225
Vnone
p1226
ass(Vbuild
p1227
g1219
tp1228
(dp1229
Vimage-file
p1230
Varch/riscv/boot/Image
p1231
sVvdso
p1232
I01
ss(Vimage
p1233
g1219
tp1234
(dp1235
Vinstall-stem
p1236
Vvmlinux
p1237
ss(Vdescription
p1238
g1219
NVriscv64
p1239
tp1240
(dp1241
Vhardware
p1242
V64-bit RISC-V platforms
p1243
sVhardware-long
p1244
V64-bit RISC-V platforms
p1245
ss(Vbase
p1246
g1219
Vnone
p1247
tp1248
(dp1249
Vflavours
p1250
(lp1251
Vriscv64
p1252
asVdefault-flavour
p1253
Vriscv64
p1254
ss(Vpackages
p1255
g1219
g1247
Vriscv64
p1256
tp1257
(dp1258
Vinstaller
p1259
I01
ss(Vbase
p1260
Vs390x
p1261
tp1262
(dp1263
Vdefault-flavour
p1264
Vs390x
p1265
sVkernel-arch
p1266
Vs390
p1267
sg70
(lp1268
g72
ass(Vbuild
p1269
g1261
tp1270
(dp1271
Vimage-file
p1272
Varch/s390/boot/bzImage
p1273
sVvdso
p1274
I01
ss(Vimage
p1275
g1261
tp1276
(dp1277
Vsuggests
p1278
(lp1279
Vs390-tools
p1280
asVinstall-stem
p1281
Vvmlinuz
p1282
ss(Vdescription
p1283
g1261
NVs390x
p1284
tp1285
(dp1286
Vhardware
p1287
VIBM zSeries
p1288
ss(Vpackages
p1289
g1261
NVs390x
p1290
tp1291
(dp1292
Vinstaller
p1293
I01
ss(g108
g1261
g72
tp1294
(dp1295
g111
(lp1296
Vs390x
p1297
asg115
I01
ss(Vbase
p1298
Vsh4
p1299
tp1300
(dp1301
Vkernel-arch
p1302
Vsh
p1303
sg70
(lp1304
g72
ass(Vbuild
p1305
g1299
tp1306
(dp1307
Vimage-file
p1308
Varch/sh/boot/zImage
p1309
ss(Vimage
p1310
g1299
tp1311
(dp1312
Vinstall-stem
p1313
Vvmlinuz
p1314
ss(Vdescription
p1315
g1299
NVsh7751r
p1316
tp1317
(dp1318
Vhardware
p1319
Vsh7751r
p1320
sVhardware-long
p1321
VRenesas SH7751R R2D plus board
p1322
ss(Vpackages
p1323
g1299
NVsh7751r
p1324
tp1325
(dp1326
Vinstaller
p1327
I01
ss(Vdescription
p1328
g1299
NVsh7785lcr
p1329
tp1330
(dp1331
Vhardware
p1332
Vsh7785lcr
p1333
sVhardware-long
p1334
VRenesas SH7785 reference board
p1335
ss(Vimage
p1336
g1299
NVsh7785lcr
p1337
tp1338
(dp1339
Vrecommends
p1340
(lp1341
Vu-boot-tools
p1342
asVcheck-size
p1343
I4194304
ss(Vpackages
p1344
g1299
NVsh7785lcr
p1345
tp1346
(dp1347
Vinstaller
p1348
I01
ss(g108
g1299
g72
tp1349
(dp1350
g111
(lp1351
Vsh7751r
p1352
aVsh7785lcr
p1353
asg115
I01
ss(Vbase
p1354
Vsparc64
p1355
tp1356
(dp1357
Vdefault-flavour
p1358
Vsparc64-smp
p1359
sVkernel-arch
p1360
Vsparc
p1361
sg70
(lp1362
g72
ass(Vbuild
p1363
g1355
tp1364
(dp1365
Vimage-file
p1366
Vvmlinux
p1367
ss(Vimage
p1368
g1355
tp1369
(dp1370
Vconfigs
p1371
(lp1372
sVsuggests
p1373
(lp1374
Vfdutils
p1375
aVgrub-ieee1275
p1376
asVinstall-stem
p1377
Vvmlinux
p1378
ss(Vdescription
p1379
g1355
NVsparc64
p1380
tp1381
(dp1382
Vhardware
p1383
Vuniprocessor 64-bit UltraSPARC
p1384
ss(Vimage
p1385
g1355
NVsparc64
p1386
tp1387
(dp1388
Vconfigs
p1389
(lp1390
Vkernelarch-sparc/config-up
p1391
ass(Vpackages
p1392
g1355
NVsparc64
p1393
tp1394
(dp1395
Vinstaller
p1396
I01
ss(Vdescription
p1397
g1355
NVsparc64-smp
p1398
tp1399
(dp1400
Vhardware
p1401
Vmultiprocessor 64-bit UltraSPARC
p1402
ss(Vimage
p1403
g1355
NVsparc64-smp
p1404
tp1405
(dp1406
Vconfigs
p1407
(lp1408
Vkernelarch-sparc/config-smp
p1409
ass(g108
g1355
g72
tp1410
(dp1411
g111
(lp1412
Vsparc64
p1413
aVsparc64-smp
p1414
asg115
I01
ss(Vbase
p1415
Vx32
p1416
tp1417
(dp1418
Vkernel-arch
p1419
Vx86
p1420
sVfeaturesets
p1421
(lp1422
ss(Vabi
p1423
NVrt
p1424
tp1425
(dp1426
Vignore-changes
p1427
V*
p1428
ss(Vdescription
p1429
Ng1424
tp1430
(dp1431
Vpart-long-rt
p1432
VThis kernel includes the PREEMPT_RT realtime patch set.
p1433
sVpart-short-rt
p1434
VPREEMPT_RT
p1435
sVparts
p1436
(lp1437
Vrt
p1438
ass(Vversion
p1439
tp1440
(dp1441
Vsource
p1442
V6.6.15-2
p1443
sVupstream
p1444
V6.6
p1445
sVabiname_base
p1446
V6.6.15
p1447
sVabiname
p1448
g1447
ss.