ccopy_reg
_reconstructor
p0
(cdebian_linux.config
ConfigCore
p1
c__builtin__
dict
p2
(dp3
(S'image'
p4
S'amd64'
p5
tp6
(dp7
S'configs'
p8
(lp9
sS'bootloaders'
p10
(lp11
S'grub-pc'
p12
aS'extlinux'
p13
aS'lilo'
p14
ass(S'base'
p15
g5
S'none'
p16
tp17
(dp18
S'flavours'
p19
(lp20
S'amd64'
p21
ass(S'build'
p22
S'armel'
p23
NS'ixp4xx'
p24
tp25
(dp26
S'image-file'
p27
S'arch/arm/boot/zImage'
p28
ss(S'description'
p29
S'hppa'
p30
NS'parisc'
p31
tp32
(dp33
S'hardware'
p34
S'32-bit PA-RISC'
p35
sS'hardware-long'
p36
S'HP PA-RISC 32-bit systems with max 4 GB RAM'
p37
ss(S'abi'
p38
NS'rt'
p39
tp40
(dp41
S'ignore-changes'
p42
(lp43
S'*'
p44
ass(S'image'
p45
S'ia64'
p46
tp47
(dp48
S'suggests'
p49
S'fdutils'
p50
sS'bootloaders'
p51
(lp52
S'elilo'
p53
ass(S'abi'
p54
tp55
(dp56
S'abiname'
p57
S'1'
p58
sS'ignore-changes'
p59
(lp60
S'module:drivers/target/iscsi/iscsi_target_mod'
p61
aS'tcp_cong_avoid_ai'
p62
aS'tcp_slow_start'
p63
aS'module:drivers/net/usb/*'
p64
aS'module:net/ceph/libceph'
p65
ass(S'version'
p66
tp67
(dp68
S'abiname'
p69
S'3.13-1'
p70
sS'source'
p71
V3.13.10-1
p72
sS'upstream'
p73
S'3.13'
p74
ss(S'description'
p75
g5
g16
S'amd64'
p76
tp77
(dp78
S'parts'
p79
(lp80
S'xen'
p81
ass(S'description'
p82
S'sh4'
p83
NS'sh7751r'
p84
tp85
(dp86
S'hardware'
p87
S'sh7751r'
p88
sS'hardware-long'
p89
S'Renesas SH7751R R2D plus board'
p90
ss(S'description'
p91
S'mipsel'
p92
NS'4kc-malta'
p93
tp94
(dp95
S'hardware'
p96
S'MIPS Malta'
p97
sS'hardware-long'
p98
S'MIPS Malta boards'
p99
ss(S'image'
p100
S'sparc64'
p101
NS'sparc64'
p102
tp103
(dp104
S'configs'
p105
(lp106
S'sparc/config.sparc64'
p107
ass(S'base'
p108
S'ppc64'
p109
S'none'
p110
tp111
(dp112
S'implicit-flavour'
p113
I01
sS'flavours'
p114
(lp115
S'powerpc64'
p116
ass(S'description'
p117
g30
NS'parisc64-smp'
p118
tp119
(dp120
S'hardware'
p121
S'multiprocessor 64-bit PA-RISC'
p122
sS'hardware-long'
p123
S'HP PA-RISC 64-bit SMP systems with support for more than 4 GB RAM'
p124
ss(S'image'
p125
g23
NS'ixp4xx'
p126
tp127
(dp128
S'check-size'
p129
S'1441760'
p130
sS'configs'
p131
(lp132
S'armel/config-reduced'
p133
aS'armel/config-tiny'
p134
aS'armel/config.ixp4xx'
p135
ass(S'image'
p136
S'i386'
p137
NS'686-pae'
p138
tp139
(dp140
S'configs'
p141
(lp142
S'kernelarch-x86/config-arch-32'
p143
aS'i386/config.686-pae'
p144
asS'recommends'
p145
S'libc6-i686'
p146
ss(S'description'
p147
Ng39
tp148
(dp149
S'part-long-rt'
p150
S'This kernel includes the PREEMPT_RT realtime patch set.'
p151
sS'parts'
p152
(lp153
S'rt'
p154
asS'part-short-rt'
p155
S'PREEMPT_RT'
p156
ss(S'base'
p157
S'alpha'
p158
tp159
(dp160
S'kernel-arch'
p161
S'alpha'
p162
sS'featuresets'
p163
(lp164
g110
ass(S'image'
p165
S'armhf'
p166
NS'armmp-lpae'
p167
tp168
(dp169
S'configs'
p170
(lp171
S'armhf/config.armmp'
p172
aS'armhf/config.lpae'
p173
ass(S'description'
p174
S'sparc'
p175
NS'sparc64'
p176
tp177
(dp178
S'hardware'
p179
S'uniprocessor 64-bit UltraSPARC'
p180
ss(g108
g166
g110
tp181
(dp182
g113
I01
sg114
(lp183
S'armmp'
p184
aS'armmp-lpae'
p185
ass(S'base'
p186
g166
tp187
(dp188
S'kernel-arch'
p189
S'arm'
p190
sg163
(lp191
g110
ass(S'base'
p192
g30
NS'parisc64-smp'
p193
tp194
(dp195
S'override-host-type'
p196
S'hppa64-linux-gnu'
p197
sS'cflags'
p198
S'-fno-cse-follow-jumps'
p199
ss(S'description'
p200
g23
NS'kirkwood'
p201
tp202
(dp203
S'hardware'
p204
S'Marvell Kirkwood'
p205
sS'hardware-long'
p206
S'Marvell Kirkwood based systems (SheevaPlug, QNAP TS-119/TS-219, etc)'
p207
ss(S'description'
p208
g166
NS'armmp-lpae'
p209
tp210
(dp211
S'hardware'
p212
S'ARMv7 multiplatform compatible SoCs supporting LPAE'
p213
sS'hardware-long'
p214
S'ARMv7 multiplatform kernel supporting LPAE'
p215
ss(S'build'
p216
g137
NS'686-pae'
p217
tp218
(dp219
S'debug-info'
p220
I01
ss(S'relations'
p221
g137
tp222
(dp223
S'headers%gcc-4.8'
p224
S'linux-compiler-gcc-4.8-x86'
p225
ss(S'image'
p226
S'powerpc'
p227
tp228
(dp229
S'suggests'
p230
S'mkvmlinuz'
p231
ss(S'description'
p232
g92
NS'loongson-2f'
p233
tp234
(dp235
S'hardware'
p236
S'Loongson 2F'
p237
sS'hardware-long'
p238
S'Lemote Loongson 2F systems'
p239
ss(S'base'
p240
g5
S'rt'
p241
tp242
(dp243
S'flavours'
p244
(lp245
S'amd64'
p246
ass(S'description'
p247
g92
NS'loongson-2e'
p248
tp249
(dp250
S'hardware'
p251
S'Loongson 2E'
p252
sS'hardware-long'
p253
S'Lemote Loongson 2E systems'
p254
ss(S'image'
p255
g137
NS'amd64'
p256
tp257
(dp258
S'configs'
p259
(lp260
S'kernelarch-x86/config-arch-64'
p261
asS'recommends'
p262
S'libc6-i686'
p263
ss(S'description'
p264
g137
S'none'
p265
S'amd64'
p266
tp267
(dp268
S'parts'
p269
(lp270
S'xen'
p271
ass(S'base'
p272
S'arm64'
p273
tp274
(dp275
S'kernel-arch'
p276
S'arm64'
p277
sS'featuresets'
p278
(lp279
ss(S'base'
p280
g137
tp281
(dp282
S'kernel-arch'
p283
S'x86'
p284
sS'featuresets'
p285
(lp286
S'none'
p287
aS'rt'
p288
ass(S'base'
p289
g92
tp290
(dp291
S'kernel-arch'
p292
S'mips'
p293
sg163
(lp294
g110
ass(S'description'
p295
g227
NS'powerpc-smp'
p296
tp297
(dp298
S'hardware'
p299
S'multiprocessor 32-bit PowerPC'
p300
ss(S'relations'
p301
g5
tp302
(dp303
S'headers%gcc-4.8'
p304
S'linux-compiler-gcc-4.8-x86'
p305
ss(S'description'
p306
S's390x'
p307
NS's390x'
p308
tp309
(dp310
S'hardware'
p311
S'IBM zSeries'
p312
ss(S'build'
p313
g83
NS'sh7751r'
p314
tp315
(dp316
S'image-file'
p317
S'arch/sh/boot/zImage'
p318
ss(S'relations'
p319
S's390'
p320
tp321
(dp322
S'headers%gcc-4.8'
p323
S'linux-compiler-gcc-4.8-s390'
p324
ss(g108
g92
g110
tp325
(dp326
g113
I01
sg114
(lp327
S'sb1-bcm91250a'
p328
aS'sb1a-bcm91480b'
p329
aS'4kc-malta'
p330
aS'5kc-malta'
p331
aS'loongson-2e'
p332
aS'loongson-2f'
p333
ass(S'description'
p334
g175
NS'sparc64-smp'
p335
tp336
(dp337
S'hardware'
p338
S'multiprocessor 64-bit UltraSPARC'
p339
ss(S'description'
p340
S'powerpcspe'
p341
tp342
(dp343
S'hardware'
p344
S'32-bit PowerPC with SPE (instead of AltiVec) with SMP support'
p345
ss(S'relations'
p346
tp347
(dp348
S'gcc-4.8'
p349
S'gcc-4.8'
p350
sS'initramfs-fallback'
p351
S'linux-initramfs-tool'
p352
sS'gcc-4.7'
p353
S'gcc-4.7'
p354
sS'gcc-4.6'
p355
S'gcc-4.6'
p356
sS'gcc-4.4'
p357
S'gcc-4.4'
p358
sS'initramfs-tools'
p359
S'initramfs-tools (>= 0.110~)'
p360
ss(S'description'
p361
S'mips'
p362
NS'r4k-ip22'
p363
tp364
(dp365
S'hardware'
p366
S'SGI IP22'
p367
sS'hardware-long'
p368
S'SGI IP22 systems (Indy, Indigo2)'
p369
ss(S'image'
p370
g23
NS'kirkwood'
p371
tp372
(dp373
S'check-size'
p374
S'2097080'
p375
sS'recommends'
p376
S'uboot-mkimage'
p377
ss(S'image'
p378
g92
NS'sb1-bcm91250a'
p379
tp380
(dp381
S'configs'
p382
(lp383
S'mips/config.sb1-bcm91250a'
p384
ass(g108
g83
g110
tp385
(dp386
g113
I01
sg114
(lp387
S'sh7751r'
p388
aS'sh7785lcr'
p389
ass(S'description'
p390
g109
NS'powerpc64'
p391
tp392
(dp393
S'hardware'
p394
S'64-bit PowerPC'
p395
ss(S'description'
p396
g362
NS'5kc-malta'
p397
tp398
(dp399
S'hardware'
p400
S'MIPS Malta (64-bit)'
p401
sS'hardware-long'
p402
S'MIPS Malta boards (64-bit)'
p403
ss(S'base'
p404
g23
tp405
(dp406
S'kernel-arch'
p407
S'arm'
p408
sg163
(lp409
g110
ass(S'build'
p410
g23
NS'mv78xx0'
p411
tp412
(dp413
S'image-file'
p414
S'arch/arm/boot/zImage'
p415
ss(S'base'
p416
g175
tp417
(dp418
S'kernel-arch'
p419
S'sparc'
p420
sg163
(lp421
g110
ass(S'base'
p422
g341
tp423
(dp424
S'kernel-arch'
p425
S'powerpc'
p426
sg163
(lp427
g110
ass(S'description'
p428
g158
NS'alpha-legacy'
p429
tp430
(dp431
S'hardware'
p432
S'Alpha Legacy'
p433
sS'hardware-long'
p434
S'DEC Alpha systems with legacy kernel start address'
p435
ss(g108
g320
g110
tp436
(dp437
g113
I01
sg114
(lp438
S's390x'
p439
ass(S'image'
p440
g83
NS'sh7785lcr'
p441
tp442
(dp443
S'check-size'
p444
S'4194304'
p445
sS'recommends'
p446
S'uboot-mkimage'
p447
ss(S'description'
p448
g362
NS'4kc-malta'
p449
tp450
(dp451
S'hardware'
p452
S'MIPS Malta'
p453
sS'hardware-long'
p454
S'MIPS Malta boards'
p455
ss(g108
g307
g110
tp456
(dp457
g113
I01
sg114
(lp458
S's390x'
p459
ass(S'base'
p460
g362
tp461
(dp462
S'kernel-arch'
p463
S'mips'
p464
sg163
(lp465
g110
ass(S'build'
p466
g5
tp467
(dp468
S'debug-info'
p469
I01
ss(S'description'
p470
g175
NS'sparc32'
p471
tp472
(dp473
S'hardware'
p474
S'uniprocessor sparc32 (sun4m)'
p475
ss(S'image'
p476
g92
tp477
(dp478
S'initramfs'
p479
I00
ss(S'build'
p480
g307
NS's390x'
p481
tp482
(dp483
S'debug-info'
p484
I01
ss(S'base'
p485
NS'rt'
p486
tp487
(dp488
S'enabled'
p489
I00
ss(S'description'
p490
g23
NS'orion5x'
p491
tp492
(dp493
S'hardware'
p494
S'Marvell Orion'
p495
sS'hardware-long'
p496
S'Marvell Orion 5181, 5182 and 5281 based systems (QNAP TS-109/TS-209, etc)'
p497
ss(S'base'
p498
g5
tp499
(dp500
S'kernel-arch'
p501
S'x86'
p502
sS'featuresets'
p503
(lp504
S'none'
p505
aS'rt'
p506
ass(S'base'
p507
g46
tp508
(dp509
S'kernel-arch'
p510
S'ia64'
p511
sg163
(lp512
g110
asS'compiler'
p513
S'gcc-4.6'
p514
ss(S'build'
p515
g166
NS'armmp-lpae'
p516
tp517
(dp518
S'image-file'
p519
S'arch/arm/boot/zImage'
p520
ss(S'description'
p521
g23
NS'versatile'
p522
tp523
(dp524
S'hardware'
p525
S'Versatile'
p526
sS'hardware-long'
p527
S'Versatile systems (PB, AB, Qemu)'
p528
ss(S'base'
p529
g320
tp530
(dp531
S'kernel-arch'
p532
S's390'
p533
sg163
(lp534
g110
ass(g108
g23
g110
tp535
(dp536
g113
I01
sg114
(lp537
S'ixp4xx'
p538
aS'kirkwood'
p539
aS'mv78xx0'
p540
aS'orion5x'
p541
aS'versatile'
p542
ass(S'description'
p543
S'm68k'
p544
NS'm68k'
p545
tp546
(dp547
S'hardware'
p548
S'Motorola MC68020+ family'
p549
ss(S'description'
p550
g137
tp551
(dp552
S'part-long-pae'
p553
S'This kernel requires PAE (Physical Address Extension).\nThis feature is supported by the Intel Pentium Pro/II/III/4/4M/D, Xeon,\nCore and Atom; AMD Geode NX, Athlon (K7), Duron, Opteron, Sempron,\nTurion or Phenom; Transmeta Efficeon; VIA C7; and some other processors.'
p554
ss(S'base'
p555
g137
g265
tp556
(dp557
S'flavours'
p558
(lp559
S'486'
p560
aS'686-pae'
p561
aS'amd64'
p562
ass(S'xen'
p563
g5
g16
S'amd64'
p564
tp565
(dp566
S'flavours'
p567
(lp568
S'amd64'
p569
ass(S'description'
p570
g362
NS'octeon'
p571
tp572
(dp573
S'hardware'
p574
S'Octeon'
p575
sS'hardware-long'
p576
S'Cavium Networks Octeon'
p577
ss(S'description'
p578
g46
NS'mckinley'
p579
tp580
(dp581
S'hardware'
p582
S'Itanium II'
p583
ss(S'relations'
p584
g23
tp585
(dp586
S'headers%gcc-4.8'
p587
S'linux-compiler-gcc-4.8-arm'
p588
ss(S'image'
p589
g30
tp590
(dp591
S'suggests'
p592
S'palo'
p593
ss(S'image'
p594
g341
tp595
(dp596
S'suggests'
p597
S'mkvmlinuz'
p598
sS'configs'
p599
(lp600
S'powerpc/config'
p601
aS'powerpcspe/config.powerpcspe'
p602
ass(S'relations'
p603
g30
tp604
(dp605
S'gcc-4.8'
p606
S'gcc-4.8, binutils-hppa64, gcc-4.8-hppa64'
p607
ss(S'description'
p608
g46
NS'itanium'
p609
tp610
(dp611
S'hardware'
p612
S'Itanium'
p613
ss(S'image'
p614
g92
NS'loongson-2f'
p615
tp616
(dp617
S'recommends'
p618
S'libc6-loongson2f'
p619
ss(S'image'
p620
g23
NS'orion5x'
p621
tp622
(dp623
S'check-size'
p624
S'1572792'
p625
sS'configs'
p626
(lp627
S'armel/config-reduced'
p628
aS'armel/config.orion5x'
p629
asS'recommends'
p630
S'uboot-mkimage'
p631
ss(S'build'
p632
g23
NS'kirkwood'
p633
tp634
(dp635
S'image-file'
p636
S'arch/arm/boot/zImage'
p637
ss(g108
g30
g110
tp638
(dp639
g113
I01
sg114
(lp640
S'parisc'
p641
aS'parisc64-smp'
p642
ass(S'description'
p643
g137
NS'amd64'
p644
tp645
(dp646
S'hardware'
p647
S'64-bit PCs'
p648
sS'parts'
p649
(lp650
S'xen'
p651
asS'hardware-long'
p652
S'PCs with AMD64, Intel 64 or VIA Nano processors'
p653
ss(S'image'
p654
g158
tp655
(dp656
S'suggests'
p657
S'aboot, fdutils'
p658
ss(S'image'
p659
g5
NS'amd64'
p660
tp661
(dp662
S'configs'
p663
(lp664
S'kernelarch-x86/config-arch-64'
p665
ass(S'base'
p666
g101
tp667
(dp668
S'kernel-arch'
p669
S'sparc'
p670
sg163
(lp671
g110
ass(S'base'
p672
g307
tp673
(dp674
S'kernel-arch'
p675
S's390'
p676
sg163
(lp677
g110
ass(S'image'
p678
g109
tp679
(dp680
S'suggests'
p681
S'mkvmlinuz'
p682
sS'configs'
p683
(lp684
S'powerpc/config'
p685
ass(S'image'
p686
g362
tp687
(dp688
S'initramfs'
p689
I00
ss(S'image'
p690
g137
tp691
(dp692
S'configs'
p693
(lp694
sS'bootloaders'
p695
(lp696
S'grub-pc'
p697
aS'extlinux'
p698
aS'lilo'
p699
ass(S'description'
p700
g137
NS'686-pae'
p701
tp702
(dp703
S'hardware'
p704
S'modern PCs'
p705
sS'parts'
p706
(lp707
S'pae'
p708
asS'hardware-long'
p709
S'PCs with one or more processors supporting PAE'
p710
ss(S'base'
p711
g109
tp712
(dp713
S'kernel-arch'
p714
S'powerpc'
p715
sg163
(lp716
g110
ass(g108
g158
g110
tp717
(dp718
g113
I01
sg114
(lp719
S'alpha-generic'
p720
aS'alpha-smp'
p721
aS'alpha-legacy'
p722
ass(S'description'
p723
g137
g265
S'686-pae'
p724
tp725
(dp726
S'parts'
p727
(lp728
S'xen'
p729
ass(g108
g46
g110
tp730
(dp731
g113
I01
sg114
(lp732
S'itanium'
p733
aS'mckinley'
p734
ass(S'build'
p735
g320
NS's390x'
p736
tp737
(dp738
S'debug-info'
p739
I01
ss(S'description'
p740
g23
NS'ixp4xx'
p741
tp742
(dp743
S'hardware'
p744
S'IXP4xx'
p745
sS'hardware-long'
p746
S'IXP4xx based systems (Linksys NSLU2, etc)'
p747
ss(S'description'
p748
g92
NS'sb1-bcm91250a'
p749
tp750
(dp751
S'hardware'
p752
S'BCM91250A'
p753
sS'hardware-long'
p754
S'Broadcom BCM91250A systems (aka SWARM)'
p755
ss(g108
g362
g110
tp756
(dp757
g113
I01
sg114
(lp758
S'r4k-ip22'
p759
aS'r5k-ip32'
p760
aS'sb1-bcm91250a'
p761
aS'sb1a-bcm91480b'
p762
aS'4kc-malta'
p763
aS'5kc-malta'
p764
aS'octeon'
p765
ass(S'image'
p766
g137
NS'486'
p767
tp768
(dp769
S'configs'
p770
(lp771
S'kernelarch-x86/config-arch-32'
p772
aS'i386/config.486'
p773
ass(S'base'
p774
S'x32'
p775
tp776
(dp777
S'kernel-arch'
p778
S'x86'
p779
sS'featuresets'
p780
(lp781
ss(S'image'
p782
g544
tp783
(dp784
S'suggests'
p785
S'vmelilo, fdutils'
p786
ss(S'description'
p787
g166
NS'armmp'
p788
tp789
(dp790
S'hardware'
p791
S'ARMv7 multiplatform compatible SoCs'
p792
sS'hardware-long'
p793
S'ARMv7 multiplatform kernel for Marvell Armada 370/xp, Freescale iMX5x/iMX6'
p794
ss(S'description'
p795
g92
NS'5kc-malta'
p796
tp797
(dp798
S'hardware'
p799
S'MIPS Malta (64-bit)'
p800
sS'hardware-long'
p801
S'MIPS Malta boards (64-bit)'
p802
ss(S'image'
p803
g92
NS'5kc-malta'
p804
tp805
(dp806
S'configs'
p807
(lp808
S'mips/config.5kc-malta'
p809
ass(S'description'
p810
g92
NS'sb1a-bcm91480b'
p811
tp812
(dp813
S'hardware'
p814
S'BCM91480B'
p815
sS'hardware-long'
p816
S'Broadcom BCM91480B systems (aka BigSur)'
p817
ss(S'image'
p818
g227
NS'powerpc-smp'
p819
tp820
(dp821
S'configs'
p822
(lp823
S'powerpc/config.powerpc'
p824
aS'powerpc/config.powerpc-smp'
p825
ass(S'description'
p826
g101
NS'sparc64-smp'
p827
tp828
(dp829
S'hardware'
p830
S'multiprocessor 64-bit UltraSPARC'
p831
ss(S'image'
p832
g320
NS's390x'
p833
tp834
(dp835
S'configs'
p836
(lp837
S's390x/config.s390x'
p838
ass(S'image'
p839
g83
tp840
(dp841
S'suggests'
p842
S'fdutils'
p843
ss(S'image'
p844
g175
NS'sparc32'
p845
tp846
(dp847
S'image-postproc'
p848
S'sparc32-image-postproc'
p849
ss(S'base'
p850
g30
tp851
(dp852
S'kernel-arch'
p853
S'parisc'
p854
sg163
(lp855
g110
ass(S'base'
p856
g137
S'rt'
p857
tp858
(dp859
S'flavours'
p860
(lp861
S'686-pae'
p862
ass(g108
g175
g110
tp863
(dp864
g113
I01
sg114
(lp865
S'sparc64'
p866
aS'sparc64-smp'
p867
ass(S'base'
p868
g83
tp869
(dp870
S'kernel-arch'
p871
S'sh'
p872
sg163
(lp873
g110
asS'compiler'
p874
S'gcc-4.7'
p875
ss(S'description'
p876
g362
NS'sb1a-bcm91480b'
p877
tp878
(dp879
S'hardware'
p880
S'BCM91480B'
p881
sS'hardware-long'
p882
S'Broadcom BCM91480B systems (aka BigSur)'
p883
ss(S'image'
p884
g175
tp885
(dp886
S'suggests'
p887
S'silo, fdutils'
p888
ss(S'description'
p889
g23
NS'mv78xx0'
p890
tp891
(dp892
S'hardware'
p893
S'Marvell 78xx0'
p894
sS'hardware-long'
p895
S'Marvell DB-78xx0-BP Development Board'
p896
ss(S'description'
p897
tp898
(dp899
S'part-long-up'
p900
S'This kernel is not suitable for SMP (multi-processor,\nmulti-core or hyper-threaded) systems.'
p901
sS'part-long-xen'
p902
S'This kernel also runs on a Xen hypervisor.\nIt supports both privileged (dom0) and unprivileged (domU) operation.'
p903
ss(S'relations'
p904
g166
tp905
(dp906
S'headers%gcc-4.8'
p907
S'linux-compiler-gcc-4.8-arm'
p908
ss(S'image'
p909
g92
NS'sb1a-bcm91480b'
p910
tp911
(dp912
S'configs'
p913
(lp914
S'mips/config.sb1a-bcm91480b'
p915
ass(S'image'
p916
g101
tp917
(dp918
S'suggests'
p919
S'silo, fdutils'
p920
sS'configs'
p921
(lp922
S'sparc/config'
p923
ass(S'relations'
p924
g307
tp925
(dp926
S'headers%gcc-4.8'
p927
S'linux-compiler-gcc-4.8-s390'
p928
ss(S'description'
p929
g158
NS'alpha-smp'
p930
tp931
(dp932
S'hardware'
p933
S'Alpha SMP'
p934
sS'hardware-long'
p935
S'DEC Alpha SMP systems with extended kernel start address (Wildfire, Titan, Marvel)'
p936
ss(S'base'
p937
g227
tp938
(dp939
S'kernel-arch'
p940
S'powerpc'
p941
sg163
(lp942
g110
ass(S'description'
p943
g362
NS'sb1-bcm91250a'
p944
tp945
(dp946
S'hardware'
p947
S'BCM91250A'
p948
sS'hardware-long'
p949
S'Broadcom BCM91250A systems (aka SWARM)'
p950
ss(S'description'
p951
g158
NS'alpha-generic'
p952
tp953
(dp954
S'hardware'
p955
S'Alpha'
p956
sS'hardware-long'
p957
S'DEC Alpha systems with extended kernel start address (Wildfire, Titan, Marvel)'
p958
ss(S'build'
p959
g166
NS'armmp'
p960
tp961
(dp962
S'image-file'
p963
S'arch/arm/boot/zImage'
p964
ss(S'description'
p965
g83
NS'sh7785lcr'
p966
tp967
(dp968
S'hardware'
p969
S'sh7785lcr'
p970
sS'hardware-long'
p971
S'Renesas SH7785 reference board'
p972
ss(S'image'
p973
g166
tp974
(dp975
S'suggests'
p976
S'fdutils'
p977
sS'configs'
p978
(lp979
S'armel/config'
p980
aS'armhf/config'
p981
ass(S'description'
p982
g101
NS'sparc64'
p983
tp984
(dp985
S'hardware'
p986
S'uniprocessor 64-bit UltraSPARC'
p987
ss(g108
g341
g110
tp988
(dp989
g113
I01
sg114
(lp990
S'powerpcspe'
p991
ass(g108
g544
g110
tp992
(dp993
g113
I01
sg114
(lp994
S'm68k'
p995
ass(S'base'
p996
tp997
(dp998
S'arches'
p999
(lp1000
S'alpha'
p1001
aS'amd64'
p1002
aS'arm64'
p1003
aS'armel'
p1004
aS'armhf'
p1005
aS'hppa'
p1006
aS'i386'
p1007
aS'ia64'
p1008
aS'm68k'
p1009
aS'mips'
p1010
aS'mipsel'
p1011
aS'powerpc'
p1012
aS'powerpcspe'
p1013
aS'ppc64'
p1014
aS's390'
p1015
aS's390x'
p1016
aS'sh4'
p1017
aS'sparc'
p1018
aS'sparc64'
p1019
aS'x32'
p1020
asS'featuresets'
p1021
(lp1022
S'none'
p1023
aS'rt'
p1024
asS'compiler'
p1025
S'gcc-4.8'
p1026
ss(S'description'
p1027
g137
NS'486'
p1028
tp1029
(dp1030
S'hardware'
p1031
S'older PCs'
p1032
sS'parts'
p1033
(lp1034
S'up'
p1035
asS'hardware-long'
p1036
S'PCs with a single processor not supporting PAE'
p1037
ss(S'image'
p1038
g23
tp1039
(dp1040
S'suggests'
p1041
S'fdutils'
p1042
ss(S'description'
p1043
g227
NS'powerpc64'
p1044
tp1045
(dp1046
S'hardware'
p1047
S'64-bit PowerPC'
p1048
ss(g108
g227
g110
tp1049
(dp1050
g113
I01
sg114
(lp1051
S'powerpc'
p1052
aS'powerpc-smp'
p1053
aS'powerpc64'
p1054
ass(S'image'
p1055
g320
tp1056
(dp1057
S'configs'
p1058
(lp1059
S's390x/config'
p1060
asS'bootloaders'
p1061
(lp1062
S's390-tools'
p1063
ass(S'image'
p1064
g109
NS'powerpc64'
p1065
tp1066
(dp1067
S'configs'
p1068
(lp1069
S'powerpc/config.powerpc64'
p1070
ass(S'description'
p1071
g320
NS's390x'
p1072
tp1073
(dp1074
S'hardware'
p1075
S'IBM zSeries'
p1076
ss(S'image'
p1077
g101
NS'sparc64-smp'
p1078
tp1079
(dp1080
S'configs'
p1081
(lp1082
S'sparc/config.sparc64-smp'
p1083
ass(S'base'
p1084
g544
tp1085
(dp1086
S'kernel-arch'
p1087
S'm68k'
p1088
sg163
(lp1089
g110
asS'cflags'
p1090
S'-ffreestanding'
p1091
sS'compiler'
p1092
S'gcc-4.8'
p1093
ss(S'image'
p1094
tp1095
(dp1096
S'initramfs-generators'
p1097
(lp1098
S'initramfs-tools'
p1099
aS'initramfs-fallback'
p1100
asS'type'
p1101
S'plain'
p1102
ss(S'description'
p1103
g5
NS'amd64'
p1104
tp1105
(dp1106
S'hardware'
p1107
S'64-bit PCs'
p1108
sS'hardware-long'
p1109
S'PCs with AMD64, Intel 64 or VIA Nano processors'
p1110
ss(g108
g101
g110
tp1111
(dp1112
g113
I01
sg114
(lp1113
S'sparc64'
p1114
aS'sparc64-smp'
p1115
ass(S'build'
p1116
g83
NS'sh7785lcr'
p1117
tp1118
(dp1119
S'image-file'
p1120
S'arch/sh/boot/zImage'
p1121
ss(S'description'
p1122
g227
NS'powerpc'
p1123
tp1124
(dp1125
S'hardware'
p1126
S'uniprocessor 32-bit PowerPC'
p1127
ss(S'image'
p1128
g307
tp1129
(dp1130
S'bootloaders'
p1131
(lp1132
S's390-tools'
p1133
ass(S'description'
p1134
g362
NS'r5k-ip32'
p1135
tp1136
(dp1137
S'hardware'
p1138
S'SGI IP32'
p1139
sS'hardware-long'
p1140
S'SGI IP32 systems (O2)'
p1141
ss(S'image'
p1142
g92
NS'4kc-malta'
p1143
tp1144
(dp1145
S'configs'
p1146
(lp1147
S'mips/config.4kc-malta'
p1148
ass(S'build'
p1149
g23
NS'orion5x'
p1150
tp1151
(dp1152
S'image-file'
p1153
S'arch/arm/boot/zImage'
p1154
sstp1155
Rp1156
.