cdebian_linux.config
ConfigCore
p0
(tRp1
(Vabi
p2
tp3
(dp4
Vabiname
p5
V1pexip1
p6
sVignore-changes
p7
(lp8
V__cpuhp_*
p9
aVbpf_analyzer
p10
aVcxl_*
p11
aVdax_flush
p12
aVieee80211_nullfunc_get
p13
aVinet_add_protocol
p14
aVinet_del_protocol
p15
aViommu_device_*
p16
aVmm_iommu_*
p17
aVmv_mbus_*
p18
aVperf_*
p19
aVregister_cxl_calls
p20
aVregister_key_type
p21
aVunregister_cxl_calls
p22
aV*_hw_breakpoint
p23
aVmodule:drivers/crypto/ccp/*
p24
aVmodule:drivers/hv/*
p25
aVmodule:drivers/gpu/drm/sun4i/*
p26
aVmodule:drivers/iio/**
p27
aVmodule:drivers/misc/cxl/*
p28
aVmodule:drivers/mtd/nand/*
p29
aVmodule:drivers/net/ethernet/**
p30
aVmodule:drivers/net/wireless/**
p31
aVmodule:drivers/nvdimm/*
p32
aVmodule:drivers/nvme/**
p33
aVmodule:drivers/power/supply/bq27xxx_battery
p34
aVmodule:drivers/scsi/cxgbi/*
p35
aVmodule:drivers/scsi/libiscs*
p36
aVmodule:drivers/scsi/qla2xxx/qla2xxx
p37
aVmodule:drivers/scsi/ufs/*
p38
aVmodule:drivers/target/**
p39
aVmodule:drivers/usb/chipidea/**
p40
aVmodule:drivers/usb/gadget/**
p41
aVmodule:drivers/usb/host/**
p42
aVmodule:drivers/usb/musb/**
p43
aVmodule:fs/nfs/**
p44
aVmodule:net/ceph/libceph
p45
aVmodule:net/l2tp/**
p46
aVmodule:net/rxrpc/rxrpc
p47
aVmodule:net/sctp/**
p48
aVmodule:sound/core/seq/**
p49
aVmodule:sound/firewire/snd-firewire-lib
p50
aVmodule:sound/pci/hda/*
p51
aVbtree_*
p52
aVvisitor*
p53
aVcan_rx_register
p54
aVip6_xmit
p55
aVmodule:net/dccp/dccp
p56
aVmodule:net/rds/rds
p57
aVdevfreq_*
p58
aVdevm_devfreq_*
p59
aVupdate_devfreq
p60
aVmodule:drivers/infiniband/**
p61
aVacpi_ec_add_query_handler
p62
aVacpi_ec_remove_query_handler
p63
aVfirst_ec
p64
aVdebugfs_create_automount
p65
aVmodule:drivers/iio/imu/inv_mpu6050/*
p66
aVdrm_crtc_accurate_vblank_count
p67
aVacpi_nfit_desc_init
p68
aVacpi_nfit_init
p69
aVloop_register_transfer
p70
aVxen_xlate_*
p71
aVnf_nat_masquerade_ipv4_register_notifier
p72
aVnf_nat_masquerade_ipv6_register_notifier
p73
aVmodule:drivers/scsi/hisi_sas/*
p74
aV__gfn_*
p75
aV__kvmhv_*
p76
aV__kvm_*
p77
aV__xive_vm_h_*
p78
aVgfn_*
p79
aVh_ipi_redirect
p80
aVhalt_poll_ns*
p81
aVkvm_*
p82
aVkvmhv_*
p83
aVkvmppc_*
p84
aVmark_page_dirty
p85
aVvcpu_*
p86
aVmodule:arch/powerpc/kvm/*
p87
aVmodule:arch/s390/kvm/*
p88
aVmodule:arch/x86/kvm/*
p89
ass(Vbase
p90
tp91
(dp92
Varches
p93
(lp94
Valpha
p95
aVamd64
p96
aVarm64
p97
aVarm64ilp32
p98
aVarmel
p99
aVarmhf
p100
aVhppa
p101
aVi386
p102
aVia64
p103
aVm68k
p104
aVmips
p105
aVmips64
p106
aVmips64el
p107
aVmips64r6
p108
aVmips64r6el
p109
aVmipsel
p110
aVmipsn32
p111
aVmipsn32el
p112
aVmipsn32r6
p113
aVmipsn32r6el
p114
aVmipsr6
p115
aVmipsr6el
p116
aVpowerpc
p117
aVppc64
p118
aVppc64el
p119
aVriscv64
p120
aVs390
p121
aVs390x
p122
aVsh3
p123
aVsh4
p124
aVsparc
p125
aVsparc64
p126
aVx32
p127
asVcompiler
p128
Vgcc-8
p129
sVfeaturesets
p130
(lp131
Vnone
p132
aVrt
p133
ass(Vbuild
p134
tp135
(dp136
Vdebug-info
p137
I01
sVsigned-code
p138
I00
ss(Vbase
p139
NVrt
p140
tp141
(dp142
Venabled
p143
I00
ss(Vdescription
p144
tp145
(dp146
Vpart-long-up
p147
VThis kernel is not suitable for SMP (multi-processor,\u000amulti-core or hyper-threaded) systems.
p148
ss(Vimage
p149
tp150
(dp151
Vinitramfs-generators
p152
(lp153
Vinitramfs-tools
p154
aVinitramfs-fallback
p155
asVbreaks
p156
(lp157
Vwireless-regdb (<< 2019.06.03-1~)
p158
asVrecommends
p159
(lp160
Vapparmor
p161
ass(Vrelations
p162
tp163
(dp164
Vgcc-8
p165
Vgcc-8 <!stage1 !cross !pkg.linux.nokernel>, gcc-8-@gnu-type-package@ <!stage1 cross !pkg.linux.nokernel>
p166
sVinitramfs-fallback
p167
Vlinux-initramfs-tool
p168
sVinitramfs-tools
p169
Vinitramfs-tools (>= 0.120+deb8u2)
p170
ss(Vbase
p171
Valpha
p172
tp173
(dp174
Vdefault-flavour
p175
Valpha-smp
p176
sVkernel-arch
p177
Valpha
p178
sVfeaturesets
p179
(lp180
Vnone
p181
ass(Vbuild
p182
g172
tp183
(dp184
Vimage-file
p185
Varch/alpha/boot/vmlinux.gz
p186
ss(Vimage
p187
g172
tp188
(dp189
Vsuggests
p190
(lp191
Vaboot
p192
aVfdutils
p193
asVinstall-stem
p194
Vvmlinuz
p195
ss(Vdescription
p196
g172
NValpha-generic
p197
tp198
(dp199
Vhardware
p200
VAlpha
p201
sVhardware-long
p202
VDEC Alpha systems with extended kernel start address (Wildfire, Titan, Marvel)
p203
ss(Vdescription
p204
g172
NValpha-smp
p205
tp206
(dp207
Vhardware
p208
VAlpha SMP
p209
sVhardware-long
p210
VDEC Alpha SMP systems with extended kernel start address (Wildfire, Titan, Marvel)
p211
ss(Vbase
p212
g172
g181
tp213
(dp214
Vflavours
p215
(lp216
Valpha-generic
p217
aValpha-smp
p218
asVimplicit-flavour
p219
I01
ss(Vbase
p220
Vamd64
p221
tp222
(dp223
Vfeaturesets
p224
(lp225
Vnone
p226
asVkernel-arch
p227
Vx86
p228
ss(Vbuild
p229
g221
tp230
(dp231
Vimage-file
p232
Varch/x86/boot/bzImage
p233
sVsigned-code
p234
I00
sVvdso
p235
I01
ss(Vimage
p236
g221
tp237
(dp238
Vbootloaders
p239
(lp240
Vgrub-pc
p241
aVgrub-efi-amd64
p242
aVextlinux
p243
asVinstall-stem
p244
Vvmlinuz
p245
sVbreaks
p246
(lp247
Vxserver-xorg-input-vmmouse (<< 1:13.0.99)
p248
ass(Vrelations
p249
g221
tp250
(dp251
Vheaders%gcc-8
p252
Vlinux-compiler-gcc-8-x86
p253
ss(Vdescription
p254
g221
NVamd64
p255
tp256
(dp257
Vhardware
p258
V64-bit PCs
p259
sVhardware-long
p260
VPCs with AMD64, Intel 64 or VIA Nano processors
p261
ss(Vbase
p262
g221
Vnone
p263
tp264
(dp265
Vflavours
p266
(lp267
Vamd64
p268
asVdefault-flavour
p269
Vamd64
p270
ss(Vimage
p271
g221
g263
Vamd64
p272
tp273
(dp274
Vconfigs
p275
(lp276
Vconfig.cloud
p277
aVamd64/config.cloud-amd64
p278
aVamd64/config.pexip-amd64
p279
ass(Vbase
p280
Varm64
p281
tp282
(dp283
Vcross-compile-compat
p284
Varm-linux-gnueabihf-
p285
sVkernel-arch
p286
Varm64
p287
sVfeaturesets
p288
(lp289
Vnone
p290
aVrt
p291
ass(Vbuild
p292
g281
tp293
(dp294
Vimage-file
p295
Varch/arm64/boot/Image
p296
sVsigned-code
p297
I01
sVvdso
p298
I01
ss(Vimage
p299
g281
tp300
(dp301
Vinstall-stem
p302
Vvmlinuz
p303
sVbreaks
p304
(lp305
Vlibmozjs185-1.0
p306
aVlibmozjs-24-0 (<< 24.2.0-5.1~)
p307
ass(Vdescription
p308
g281
NVarm64
p309
tp310
(dp311
Vhardware
p312
V64-bit ARMv8 machines
p313
ss(Vdescription
p314
g281
NVcloud-arm64
p315
tp316
(dp317
Vhardware
p318
Varm64 cloud
p319
sVhardware-long
p320
Vcloud platforms supporting arm64 virtual machines
p321
ss(Vimage
p322
g281
NVarm64
p323
tp324
(dp325
s(Vrelations
p326
g281
tp327
(dp328
Vgcc-10
p329
Vgcc-10 <!stage1 !cross !pkg.linux.nokernel>, gcc-10-aarch64-linux-gnu <!stage1 cross !pkg.linux.nokernel>, gcc-arm-linux-gnueabihf <!stage1 !pkg.linux.nokernel>
p330
sVheaders%gcc-10
p331
Vgcc-10
p332
ss(Vbase
p333
g281
Vnone
p334
tp335
(dp336
Vflavours
p337
(lp338
Varm64
p339
aVcloud-arm64
p340
asVdefault-flavour
p341
Varm64
p342
ss(Vimage
p343
g281
g334
Vcloud-arm64
p344
tp345
(dp346
Vconfigs
p347
(lp348
Vconfig.cloud
p349
aVarm64/config.cloud-arm64
p350
ass(Vbase
p351
g281
Vrt
p352
tp353
(dp354
Vflavours
p355
(lp356
Varm64
p357
ass(Vbase
p358
Varm64ilp32
p359
tp360
(dp361
Vkernel-arch
p362
Varm64
p363
sVfeaturesets
p364
(lp365
ss(Vbase
p366
Varmel
p367
tp368
(dp369
Vkernel-arch
p370
Varm
p371
sg179
(lp372
g181
ass(Vbuild
p373
g367
tp374
(dp375
Vimage-file
p376
Varch/arm/boot/zImage
p377
sVuncompressed-image-file
p378
Varch/arm/boot/Image
p379
ss(Vimage
p380
g367
tp381
(dp382
Vinstall-stem
p383
Vvmlinuz
p384
ss(Vrelations
p385
g367
tp386
(dp387
Vheaders%gcc-10
p388
Vlinux-compiler-gcc-10-arm
p389
ss(Vdescription
p390
g367
NVmarvell
p391
tp392
(dp393
Vhardware
p394
VMarvell Kirkwood/Orion
p395
sVhardware-long
p396
VMarvell Kirkwood and Orion based systems (https://wiki.debian.org/ArmEabiPort#Supported_hardware)
p397
ss(Vdescription
p398
g367
NVrpi
p399
tp400
(dp401
Vhardware
p402
VRaspberry Pi and Pi Zero
p403
sVhardware-long
p404
VRaspberry Pi, Raspberry Pi Zero based systems
p405
ss(Vimage
p406
g367
NVmarvell
p407
tp408
(dp409
Vrecommends
p410
(lp411
Vu-boot-tools
p412
asVcheck-size
p413
I2729712
sVcheck-size-with-dtb
p414
I01
sVbreaks
p415
(lp416
Vflash-kernel (<< 3.57~)
p417
ass(g212
g367
g181
tp418
(dp419
g215
(lp420
Vmarvell
p421
aVrpi
p422
asg219
I01
ss(Vbase
p423
Varmhf
p424
tp425
(dp426
Vfeaturesets
p427
(lp428
Vnone
p429
aVrt
p430
asVkernel-arch
p431
Varm
p432
ss(Vbuild
p433
g424
tp434
(dp435
Vimage-file
p436
Varch/arm/boot/zImage
p437
sVvdso
p438
I01
ss(Vimage
p439
g424
tp440
(dp441
Vinstall-stem
p442
Vvmlinuz
p443
ss(Vrelations
p444
g424
tp445
(dp446
Vheaders%gcc-10
p447
Vlinux-compiler-gcc-10-arm
p448
ss(Vdescription
p449
g424
NVarmmp
p450
tp451
(dp452
Vhardware
p453
VARMv7 multiplatform compatible SoCs
p454
sVhardware-long
p455
VARMv7 multiplatform kernel. See\u000ahttps://wiki.debian.org/DebianKernel/ARMMP for details of supported\u000aplatforms
p456
ss(Vdescription
p457
g424
NVarmmp-lpae
p458
tp459
(dp460
Vhardware
p461
VARMv7 multiplatform compatible SoCs supporting LPAE
p462
sVhardware-long
p463
VARMv7 multiplatform kernel supporting LPAE. See\u000ahttps://wiki.debian.org/DebianKernel/ARMMP for details of supported\u000aplatforms.
p464
ss(Vbase
p465
g424
Vnone
p466
tp467
(dp468
Vflavours
p469
(lp470
Varmmp
p471
aVarmmp-lpae
p472
asVdefault-flavour
p473
Varmmp
p474
ss(Vbase
p475
g424
Vrt
p476
tp477
(dp478
Vflavours
p479
(lp480
Varmmp
p481
ass(Vbase
p482
Vhppa
p483
tp484
(dp485
Vdefault-flavour
p486
Vparisc
p487
sVkernel-arch
p488
Vparisc
p489
sg179
(lp490
g181
ass(Vbuild
p491
g483
tp492
(dp493
Vimage-file
p494
Varch/parisc/boot/bzImage
p495
sVdebug-info
p496
I00
ss(Vimage
p497
g483
tp498
(dp499
Vsuggests
p500
(lp501
Vpalo
p502
asVinstall-stem
p503
Vvmlinuz
p504
ss(Vdescription
p505
g483
NVparisc
p506
tp507
(dp508
Vhardware
p509
V32-bit PA-RISC
p510
sVhardware-long
p511
VHP PA-RISC 32-bit systems with max 4 GB RAM
p512
ss(Vbase
p513
g483
NVparisc64
p514
tp515
(dp516
Vcflags
p517
V-fno-cse-follow-jumps
p518
sVoverride-host-type
p519
Vhppa64-linux-gnu
p520
ss(Vdescription
p521
g483
NVparisc64
p522
tp523
(dp524
Vhardware
p525
V64-bit PA-RISC
p526
sVhardware-long
p527
VHP PA-RISC 64-bit systems with support for more than 4 GB RAM
p528
ss(Vrelations
p529
g483
tp530
(dp531
Vgcc-10
p532
Vgcc-10 <!stage1 !cross !pkg.linux.nokernel>, gcc-10-hppa-linux-gnu <!stage1 cross !pkg.linux.nokernel>, binutils-hppa64-linux-gnu <!stage1 !pkg.linux.nokernel>, gcc-10-hppa64-linux-gnu <!stage1 !pkg.linux.nokernel>
p533
ss(g212
g483
g181
tp534
(dp535
g215
(lp536
Vparisc
p537
aVparisc64
p538
asg219
I01
ss(Vbase
p539
Vi386
p540
tp541
(dp542
Vfeaturesets
p543
(lp544
Vnone
p545
aVrt
p546
asVkernel-arch
p547
Vx86
p548
ss(Vbuild
p549
g540
tp550
(dp551
Vimage-file
p552
Varch/x86/boot/bzImage
p553
sVsigned-code
p554
I01
sVvdso
p555
I01
ss(Vdescription
p556
g540
tp557
(dp558
Vpart-long-pae
p559
VThis kernel requires PAE (Physical Address Extension).\u000aThis feature is supported by the Intel Pentium Pro/II/III/4/4M/D, Xeon,\u000aCore and Atom; AMD Geode NX, Athlon (K7), Duron, Opteron, Sempron,\u000aTurion or Phenom; Transmeta Efficeon; VIA C7; and some other processors.
p560
ss(Vimage
p561
g540
tp562
(dp563
Vbootloaders
p564
(lp565
Vgrub-pc
p566
aVgrub-efi-ia32
p567
aVextlinux
p568
asVinstall-stem
p569
Vvmlinuz
p570
sVbreaks
p571
(lp572
Vxserver-xorg-input-vmmouse (<< 1:13.0.99)
p573
ass(Vrelations
p574
g540
tp575
(dp576
Vheaders%gcc-8
p577
Vlinux-compiler-gcc-8-x86
p578
ss(Vdescription
p579
g540
NV686
p580
tp581
(dp582
Vhardware
p583
Volder PCs
p584
sVhardware-long
p585
VPCs with one or more processors not supporting PAE
p586
ss(Vdescription
p587
g540
NV686-pae
p588
tp589
(dp590
Vhardware
p591
Vmodern PCs
p592
sVhardware-long
p593
VPCs with one or more processors supporting PAE
p594
sVparts
p595
(lp596
Vpae
p597
ass(Vbase
p598
g540
Vnone
p599
tp600
(dp601
Vflavours
p602
(lp603
V686
p604
aV686-pae
p605
asVdefault-flavour
p606
V686-pae
p607
ss(Vbase
p608
g540
Vrt
p609
tp610
(dp611
Vflavours
p612
(lp613
V686-pae
p614
ass(Vbase
p615
Via64
p616
tp617
(dp618
Vdefault-flavour
p619
Vitanium
p620
sVkernel-arch
p621
Via64
p622
sg179
(lp623
g181
ass(Vbuild
p624
g616
tp625
(dp626
Vimage-file
p627
Vvmlinux.gz
p628
ss(Vimage
p629
g616
tp630
(dp631
Vbootloaders
p632
(lp633
Vgrub-efi-ia64
p634
asVinstall-stem
p635
Vvmlinuz
p636
ss(Vdescription
p637
g616
NVitanium
p638
tp639
(dp640
Vhardware
p641
VItanium (Merced)
p642
sVhardware-long
p643
Vsystems with original Itanium (Merced) processors
p644
ss(Vdescription
p645
g616
NVmckinley
p646
tp647
(dp648
Vhardware
p649
VItanium 2+
p650
sVhardware-long
p651
Vsystems with Itanium 2 or 9300/9500/9700-series processors
p652
ss(g212
g616
g181
tp653
(dp654
g215
(lp655
Vitanium
p656
aVmckinley
p657
asg219
I01
ss(Vbase
p658
Vm68k
p659
tp660
(dp661
Vcflags
p662
V-ffreestanding
p663
sVdefault-flavour
p664
Vm68k
p665
sVkernel-arch
p666
Vm68k
p667
sg179
(lp668
g181
ass(Vbuild
p669
g659
tp670
(dp671
Vimage-file
p672
Vvmlinux
p673
ss(Vimage
p674
g659
tp675
(dp676
Vsuggests
p677
(lp678
Vvmelilo
p679
aVfdutils
p680
asVinstall-stem
p681
Vvmlinux
p682
ss(Vdescription
p683
g659
NVm68k
p684
tp685
(dp686
Vhardware
p687
VMotorola MC68020+ family
p688
ss(g212
g659
g181
tp689
(dp690
g215
(lp691
Vm68k
p692
asg219
I01
ss(Vbase
p693
Vmips
p694
tp695
(dp696
Vkernel-arch
p697
Vmips
p698
sg179
(lp699
g181
ass(Vbuild
p700
g694
tp701
(dp702
Vimage-file
p703
Vvmlinuz
p704
ss(Vimage
p705
g694
tp706
(dp707
Vinstall-stem
p708
Vvmlinuz
p709
ss(Vdescription
p710
g694
NV4kc-malta
p711
tp712
(dp713
Vhardware
p714
VMIPS Malta
p715
sVhardware-long
p716
VMIPS Malta boards
p717
ss(Vimage
p718
g694
NV4kc-malta
p719
tp720
(dp721
Vconfigs
p722
(lp723
Vkernelarch-mips/config.malta
p724
aVkernelarch-mips/config.mips32r2
p725
ass(Vdescription
p726
g694
NV5kc-malta
p727
tp728
(dp729
Vhardware
p730
VMIPS Malta (64-bit)
p731
sVhardware-long
p732
VMIPS Malta boards (64-bit)
p733
ss(Vimage
p734
g694
NV5kc-malta
p735
tp736
(dp737
Vconfigs
p738
(lp739
Vkernelarch-mips/config.malta
p740
aVkernelarch-mips/config.mips64r2
p741
ass(Vdescription
p742
g694
NVocteon
p743
tp744
(dp745
Vhardware
p746
VOcteon
p747
sVhardware-long
p748
VCavium Networks Octeon
p749
ss(Vbuild
p750
g694
NVocteon
p751
tp752
(dp753
Vimage-file
p754
Vvmlinux
p755
ss(Vimage
p756
g694
NVocteon
p757
tp758
(dp759
Vinstall-stem
p760
Vvmlinux
p761
sVconfigs
p762
(lp763
Vkernelarch-mips/config.octeon
p764
ass(g212
g694
g181
tp765
(dp766
g215
(lp767
V4kc-malta
p768
aV5kc-malta
p769
aVocteon
p770
asg219
I01
ss(Vbase
p771
Vmips64
p772
tp773
(dp774
Vkernel-arch
p775
Vmips
p776
sg179
(lp777
g181
ass(Vbuild
p778
g772
tp779
(dp780
Vimage-file
p781
Vvmlinuz
p782
ss(Vimage
p783
g772
tp784
(dp785
Vinstall-stem
p786
Vvmlinuz
p787
ss(Vdescription
p788
g772
NV5kc-malta
p789
tp790
(dp791
Vhardware
p792
VMIPS Malta
p793
sVhardware-long
p794
VMIPS Malta boards
p795
ss(Vimage
p796
g772
NV5kc-malta
p797
tp798
(dp799
Vconfigs
p800
(lp801
Vkernelarch-mips/config.malta
p802
aVkernelarch-mips/config.mips64r2
p803
ass(Vdescription
p804
g772
NVocteon
p805
tp806
(dp807
Vhardware
p808
VOcteon
p809
sVhardware-long
p810
VCavium Networks Octeon
p811
ss(Vbuild
p812
g772
NVocteon
p813
tp814
(dp815
Vimage-file
p816
Vvmlinux
p817
ss(Vimage
p818
g772
NVocteon
p819
tp820
(dp821
Vinstall-stem
p822
Vvmlinux
p823
sVconfigs
p824
(lp825
Vkernelarch-mips/config.octeon
p826
ass(g212
g772
g181
tp827
(dp828
g215
(lp829
V5kc-malta
p830
aVocteon
p831
asg219
I01
ss(Vbase
p832
Vmips64el
p833
tp834
(dp835
Vkernel-arch
p836
Vmips
p837
sg179
(lp838
g181
ass(Vbuild
p839
g833
tp840
(dp841
Vimage-file
p842
Vvmlinuz
p843
ss(Vimage
p844
g833
tp845
(dp846
Vinstall-stem
p847
Vvmlinuz
p848
ss(Vdescription
p849
g833
NV5kc-malta
p850
tp851
(dp852
Vhardware
p853
VMIPS Malta
p854
sVhardware-long
p855
VMIPS Malta boards
p856
ss(Vimage
p857
g833
NV5kc-malta
p858
tp859
(dp860
Vconfigs
p861
(lp862
Vkernelarch-mips/config.malta
p863
aVkernelarch-mips/config.mips64r2
p864
ass(Vdescription
p865
g833
NVloongson-3
p866
tp867
(dp868
Vhardware
p869
VLoongson 3A/3B
p870
sVhardware-long
p871
VLoongson 3A or 3B based systems (e.g. from Loongson or Lemote)
p872
ss(Vimage
p873
g833
NVloongson-3
p874
tp875
(dp876
Vconfigs
p877
(lp878
Vkernelarch-mips/config.loongson-3
p879
ass(Vdescription
p880
g833
NVocteon
p881
tp882
(dp883
Vhardware
p884
VOcteon
p885
sVhardware-long
p886
VCavium Networks Octeon
p887
ss(Vbuild
p888
g833
NVocteon
p889
tp890
(dp891
Vimage-file
p892
Vvmlinux
p893
ss(Vimage
p894
g833
NVocteon
p895
tp896
(dp897
Vinstall-stem
p898
Vvmlinux
p899
sVconfigs
p900
(lp901
Vkernelarch-mips/config.octeon
p902
ass(g212
g833
g181
tp903
(dp904
g215
(lp905
V5kc-malta
p906
aVloongson-3
p907
aVocteon
p908
asg219
I01
ss(Vbase
p909
Vmips64r6
p910
tp911
(dp912
Vdefault-flavour
p913
Vmips64r6
p914
sVkernel-arch
p915
Vmips
p916
sg179
(lp917
g181
ass(Vbuild
p918
g910
tp919
(dp920
Vimage-file
p921
Vvmlinux
p922
ss(Vimage
p923
g910
tp924
(dp925
Vinstall-stem
p926
Vvmlinux
p927
ss(Vdescription
p928
g910
NVmips64r6
p929
tp930
(dp931
Vhardware
p932
VMIPS R6 (64 bit, big endian)
p933
sVhardware-long
p934
VMIPS R6 (64 bit, big endian)
p935
ss(Vimage
p936
g910
NVmips64r6
p937
tp938
(dp939
Vconfigs
p940
(lp941
Vkernelarch-mips/config.boston
p942
aVkernelarch-mips/config.mips64r6
p943
ass(g212
g910
g181
tp944
(dp945
g215
(lp946
Vmips64r6
p947
asg219
I01
ss(Vbase
p948
Vmips64r6el
p949
tp950
(dp951
Vdefault-flavour
p952
Vmips64r6el
p953
sVkernel-arch
p954
Vmips
p955
sg179
(lp956
g181
ass(Vbuild
p957
g949
tp958
(dp959
Vimage-file
p960
Vvmlinux
p961
ss(Vimage
p962
g949
tp963
(dp964
Vinstall-stem
p965
Vvmlinux
p966
ss(Vdescription
p967
g949
NVmips64r6el
p968
tp969
(dp970
Vhardware
p971
VMIPS R6 (64 bit, little endian)
p972
sVhardware-long
p973
VMIPS R6 (64 bit, little endian)
p974
ss(Vimage
p975
g949
NVmips64r6el
p976
tp977
(dp978
Vconfigs
p979
(lp980
Vkernelarch-mips/config.boston
p981
aVkernelarch-mips/config.mips64r6
p982
ass(g212
g949
g181
tp983
(dp984
g215
(lp985
Vmips64r6el
p986
asg219
I01
ss(Vbase
p987
Vmipsel
p988
tp989
(dp990
Vkernel-arch
p991
Vmips
p992
sg179
(lp993
g181
ass(Vbuild
p994
g988
tp995
(dp996
Vimage-file
p997
Vvmlinuz
p998
ss(Vimage
p999
g988
tp1000
(dp1001
Vinstall-stem
p1002
Vvmlinuz
p1003
ss(Vdescription
p1004
g988
NV4kc-malta
p1005
tp1006
(dp1007
Vhardware
p1008
VMIPS Malta
p1009
sVhardware-long
p1010
VMIPS Malta boards
p1011
ss(Vimage
p1012
g988
NV4kc-malta
p1013
tp1014
(dp1015
Vconfigs
p1016
(lp1017
Vkernelarch-mips/config.malta
p1018
aVkernelarch-mips/config.mips32r2
p1019
ass(Vdescription
p1020
g988
NV5kc-malta
p1021
tp1022
(dp1023
Vhardware
p1024
VMIPS Malta (64-bit)
p1025
sVhardware-long
p1026
VMIPS Malta boards (64-bit)
p1027
ss(Vimage
p1028
g988
NV5kc-malta
p1029
tp1030
(dp1031
Vconfigs
p1032
(lp1033
Vkernelarch-mips/config.malta
p1034
aVkernelarch-mips/config.mips64r2
p1035
ass(Vdescription
p1036
g988
NVloongson-3
p1037
tp1038
(dp1039
Vhardware
p1040
VLoongson 3A/3B
p1041
sVhardware-long
p1042
VLoongson 3A or 3B based systems (e.g. from Loongson or Lemote)
p1043
ss(Vimage
p1044
g988
NVloongson-3
p1045
tp1046
(dp1047
Vconfigs
p1048
(lp1049
Vkernelarch-mips/config.loongson-3
p1050
ass(Vdescription
p1051
g988
NVocteon
p1052
tp1053
(dp1054
Vhardware
p1055
VOcteon
p1056
sVhardware-long
p1057
VCavium Networks Octeon
p1058
ss(Vbuild
p1059
g988
NVocteon
p1060
tp1061
(dp1062
Vimage-file
p1063
Vvmlinux
p1064
ss(Vimage
p1065
g988
NVocteon
p1066
tp1067
(dp1068
Vinstall-stem
p1069
Vvmlinux
p1070
sVconfigs
p1071
(lp1072
Vkernelarch-mips/config.octeon
p1073
ass(g212
g988
g181
tp1074
(dp1075
g215
(lp1076
V4kc-malta
p1077
aV5kc-malta
p1078
aVloongson-3
p1079
aVocteon
p1080
asg219
I01
ss(Vbase
p1081
Vmipsn32
p1082
tp1083
(dp1084
Vkernel-arch
p1085
Vmips
p1086
sVfeaturesets
p1087
(lp1088
ss(Vbase
p1089
Vmipsn32el
p1090
tp1091
(dp1092
Vkernel-arch
p1093
Vmips
p1094
sVfeaturesets
p1095
(lp1096
ss(Vbase
p1097
Vmipsn32r6
p1098
tp1099
(dp1100
Vkernel-arch
p1101
Vmips
p1102
sVfeaturesets
p1103
(lp1104
ss(Vbase
p1105
Vmipsn32r6el
p1106
tp1107
(dp1108
Vkernel-arch
p1109
Vmips
p1110
sVfeaturesets
p1111
(lp1112
ss(Vbase
p1113
Vmipsr6
p1114
tp1115
(dp1116
Vdefault-flavour
p1117
Vmips32r6
p1118
sVkernel-arch
p1119
Vmips
p1120
sg179
(lp1121
g181
ass(Vbuild
p1122
g1114
tp1123
(dp1124
Vimage-file
p1125
Vvmlinux
p1126
ss(Vimage
p1127
g1114
tp1128
(dp1129
Vinstall-stem
p1130
Vvmlinux
p1131
ss(Vdescription
p1132
g1114
NVmips32r6
p1133
tp1134
(dp1135
Vhardware
p1136
VMIPS R6 (32 bit, big endian)
p1137
sVhardware-long
p1138
VMIPS R6 (32 bit, big endian)
p1139
ss(Vimage
p1140
g1114
NVmips32r6
p1141
tp1142
(dp1143
Vconfigs
p1144
(lp1145
Vkernelarch-mips/config.boston
p1146
aVkernelarch-mips/config.mips32r6
p1147
ass(Vdescription
p1148
g1114
NVmips64r6
p1149
tp1150
(dp1151
Vhardware
p1152
VMIPS R6 (64 bit, big endian)
p1153
sVhardware-long
p1154
VMIPS R6 (64 bit, big endian)
p1155
ss(Vimage
p1156
g1114
NVmips64r6
p1157
tp1158
(dp1159
Vconfigs
p1160
(lp1161
Vkernelarch-mips/config.boston
p1162
aVkernelarch-mips/config.mips64r6
p1163
ass(g212
g1114
g181
tp1164
(dp1165
g215
(lp1166
Vmips32r6
p1167
aVmips64r6
p1168
asg219
I01
ss(Vbase
p1169
Vmipsr6el
p1170
tp1171
(dp1172
Vdefault-flavour
p1173
Vmips32r6el
p1174
sVkernel-arch
p1175
Vmips
p1176
sg179
(lp1177
g181
ass(Vbuild
p1178
g1170
tp1179
(dp1180
Vimage-file
p1181
Vvmlinux
p1182
ss(Vimage
p1183
g1170
tp1184
(dp1185
Vinstall-stem
p1186
Vvmlinux
p1187
ss(Vdescription
p1188
g1170
NVmips32r6el
p1189
tp1190
(dp1191
Vhardware
p1192
VMIPS R6 (32 bit, little endian)
p1193
sVhardware-long
p1194
VMIPS R6 (32 bit, little endian)
p1195
ss(Vimage
p1196
g1170
NVmips32r6el
p1197
tp1198
(dp1199
Vconfigs
p1200
(lp1201
Vkernelarch-mips/config.boston
p1202
aVkernelarch-mips/config.mips32r6
p1203
ass(Vdescription
p1204
g1170
NVmips64r6el
p1205
tp1206
(dp1207
Vhardware
p1208
VMIPS R6 (64 bit, little endian)
p1209
sVhardware-long
p1210
VMIPS R6 (64 bit, little endian)
p1211
ss(Vimage
p1212
g1170
NVmips64r6el
p1213
tp1214
(dp1215
Vconfigs
p1216
(lp1217
Vkernelarch-mips/config.boston
p1218
aVkernelarch-mips/config.mips64r6
p1219
ass(g212
g1170
g181
tp1220
(dp1221
g215
(lp1222
Vmips32r6el
p1223
aVmips64r6el
p1224
asg219
I01
ss(Vbase
p1225
Vpowerpc
p1226
tp1227
(dp1228
Vkernel-arch
p1229
Vpowerpc
p1230
sg179
(lp1231
g181
ass(Vbuild
p1232
g1226
tp1233
(dp1234
Vimage-file
p1235
Vvmlinux
p1236
sVvdso
p1237
I01
ss(Vimage
p1238
g1226
tp1239
(dp1240
Vconfigs
p1241
(lp1242
sVbootloaders
p1243
(lp1244
Vgrub-ieee1275
p1245
asVsuggests
p1246
(lp1247
Vmkvmlinuz
p1248
asVinstall-stem
p1249
Vvmlinux
p1250
ss(Vdescription
p1251
g1226
NVpowerpc
p1252
tp1253
(dp1254
Vhardware
p1255
Vuniprocessor 32-bit PowerPC
p1256
ss(Vdescription
p1257
g1226
NVpowerpc-smp
p1258
tp1259
(dp1260
Vhardware
p1261
Vmultiprocessor 32-bit PowerPC
p1262
ss(Vimage
p1263
g1226
NVpowerpc-smp
p1264
tp1265
(dp1266
Vconfigs
p1267
(lp1268
Vpowerpc/config.powerpc
p1269
aVpowerpc/config.powerpc-smp
p1270
ass(Vdescription
p1271
g1226
NVpowerpc64
p1272
tp1273
(dp1274
Vhardware
p1275
V64-bit PowerPC
p1276
ss(Vimage
p1277
g1226
NVpowerpc64
p1278
tp1279
(dp1280
Vconfigs
p1281
(lp1282
Vkernelarch-powerpc/config-arch-64
p1283
aVkernelarch-powerpc/config-arch-64-be
p1284
ass(g212
g1226
g181
tp1285
(dp1286
g215
(lp1287
Vpowerpc
p1288
aVpowerpc-smp
p1289
aVpowerpc64
p1290
asg219
I01
ss(Vbase
p1291
Vppc64
p1292
tp1293
(dp1294
Vdefault-flavour
p1295
Vpowerpc64
p1296
sVkernel-arch
p1297
Vpowerpc
p1298
sg179
(lp1299
g181
ass(Vbuild
p1300
g1292
tp1301
(dp1302
Vimage-file
p1303
Vvmlinux
p1304
sVvdso
p1305
I01
ss(Vimage
p1306
g1292
tp1307
(dp1308
Vconfigs
p1309
(lp1310
sVbootloaders
p1311
(lp1312
Vgrub-ieee1275
p1313
asVsuggests
p1314
(lp1315
Vmkvmlinuz
p1316
asVinstall-stem
p1317
Vvmlinux
p1318
ss(Vdescription
p1319
g1292
NVpowerpc64
p1320
tp1321
(dp1322
Vhardware
p1323
V64-bit PowerPC
p1324
ss(Vimage
p1325
g1292
NVpowerpc64
p1326
tp1327
(dp1328
Vconfigs
p1329
(lp1330
Vkernelarch-powerpc/config-arch-64
p1331
aVkernelarch-powerpc/config-arch-64-be
p1332
ass(g212
g1292
g181
tp1333
(dp1334
g215
(lp1335
Vpowerpc64
p1336
asg219
I01
ss(Vbase
p1337
Vppc64el
p1338
tp1339
(dp1340
Vdefault-flavour
p1341
Vpowerpc64le
p1342
sVkernel-arch
p1343
Vpowerpc
p1344
sg179
(lp1345
g181
ass(Vbuild
p1346
g1338
tp1347
(dp1348
Vimage-file
p1349
Vvmlinux
p1350
sVvdso
p1351
I01
ss(Vimage
p1352
g1338
tp1353
(dp1354
Vconfigs
p1355
(lp1356
sVbootloaders
p1357
(lp1358
Vgrub-ieee1275
p1359
asVsuggests
p1360
(lp1361
Vmkvmlinuz
p1362
asVinstall-stem
p1363
Vvmlinux
p1364
ss(Vdescription
p1365
g1338
NVpowerpc64le
p1366
tp1367
(dp1368
Vhardware
p1369
VLittle-endian 64-bit PowerPC
p1370
ss(Vimage
p1371
g1338
NVpowerpc64le
p1372
tp1373
(dp1374
Vconfigs
p1375
(lp1376
Vkernelarch-powerpc/config-arch-64
p1377
aVkernelarch-powerpc/config-arch-64-le
p1378
ass(g212
g1338
g181
tp1379
(dp1380
g215
(lp1381
Vpowerpc64le
p1382
asg219
I01
ss(Vbase
p1383
Vriscv64
p1384
tp1385
(dp1386
Vkernel-arch
p1387
Vriscv
p1388
sVfeaturesets
p1389
(lp1390
Vnone
p1391
ass(Vbuild
p1392
g1384
tp1393
(dp1394
Vimage-file
p1395
Varch/riscv/boot/Image
p1396
sVvdso
p1397
I01
ss(Vimage
p1398
g1384
tp1399
(dp1400
Vinstall-stem
p1401
Vvmlinux
p1402
ss(Vdescription
p1403
g1384
NVriscv64
p1404
tp1405
(dp1406
Vhardware
p1407
V64-bit RISC-V platforms
p1408
sVhardware-long
p1409
V64-bit RISC-V platforms
p1410
ss(Vbase
p1411
g1384
Vnone
p1412
tp1413
(dp1414
Vflavours
p1415
(lp1416
Vriscv64
p1417
asVdefault-flavour
p1418
Vriscv64
p1419
ss(Vbase
p1420
Vs390
p1421
tp1422
(dp1423
Vkernel-arch
p1424
Vs390
p1425
sVfeaturesets
p1426
(lp1427
ss(Vbase
p1428
Vs390x
p1429
tp1430
(dp1431
Vdefault-flavour
p1432
Vs390x
p1433
sVkernel-arch
p1434
Vs390
p1435
sg179
(lp1436
g181
ass(Vbuild
p1437
g1429
tp1438
(dp1439
Vimage-file
p1440
Varch/s390/boot/bzImage
p1441
sVvdso
p1442
I01
ss(Vimage
p1443
g1429
tp1444
(dp1445
Vbootloaders
p1446
(lp1447
Vs390-tools
p1448
asVinstall-stem
p1449
Vvmlinuz
p1450
ss(Vrelations
p1451
g1429
tp1452
(dp1453
Vheaders%gcc-10
p1454
Vlinux-compiler-gcc-10-s390
p1455
ss(Vdescription
p1456
g1429
NVs390x
p1457
tp1458
(dp1459
Vhardware
p1460
VIBM zSeries
p1461
ss(g212
g1429
g181
tp1462
(dp1463
g215
(lp1464
Vs390x
p1465
asg219
I01
ss(Vbase
p1466
Vsh3
p1467
tp1468
(dp1469
Vkernel-arch
p1470
Vsh
p1471
sVfeaturesets
p1472
(lp1473
ss(Vbase
p1474
Vsh4
p1475
tp1476
(dp1477
Vkernel-arch
p1478
Vsh
p1479
sg179
(lp1480
g181
ass(Vbuild
p1481
g1475
tp1482
(dp1483
Vimage-file
p1484
Varch/sh/boot/zImage
p1485
ss(Vimage
p1486
g1475
tp1487
(dp1488
Vinstall-stem
p1489
Vvmlinuz
p1490
ss(Vdescription
p1491
g1475
NVsh7751r
p1492
tp1493
(dp1494
Vhardware
p1495
Vsh7751r
p1496
sVhardware-long
p1497
VRenesas SH7751R R2D plus board
p1498
ss(Vdescription
p1499
g1475
NVsh7785lcr
p1500
tp1501
(dp1502
Vhardware
p1503
Vsh7785lcr
p1504
sVhardware-long
p1505
VRenesas SH7785 reference board
p1506
ss(Vimage
p1507
g1475
NVsh7785lcr
p1508
tp1509
(dp1510
Vrecommends
p1511
(lp1512
Vu-boot-tools
p1513
asVcheck-size
p1514
I4194304
ss(g212
g1475
g181
tp1515
(dp1516
g215
(lp1517
Vsh7751r
p1518
aVsh7785lcr
p1519
asg219
I01
ss(Vbase
p1520
Vsparc
p1521
tp1522
(dp1523
Vkernel-arch
p1524
Vsparc
p1525
sVfeaturesets
p1526
(lp1527
ss(Vbase
p1528
Vsparc64
p1529
tp1530
(dp1531
Vdefault-flavour
p1532
Vsparc64-smp
p1533
sVkernel-arch
p1534
Vsparc
p1535
sg179
(lp1536
g181
ass(Vbuild
p1537
g1529
tp1538
(dp1539
Vimage-file
p1540
Vvmlinux
p1541
ss(Vimage
p1542
g1529
tp1543
(dp1544
Vconfigs
p1545
(lp1546
sVbootloaders
p1547
(lp1548
Vgrub-ieee1275
p1549
asVsuggests
p1550
(lp1551
Vfdutils
p1552
asVinstall-stem
p1553
Vvmlinux
p1554
ss(Vdescription
p1555
g1529
NVsparc64
p1556
tp1557
(dp1558
Vhardware
p1559
Vuniprocessor 64-bit UltraSPARC
p1560
ss(Vimage
p1561
g1529
NVsparc64
p1562
tp1563
(dp1564
Vconfigs
p1565
(lp1566
Vkernelarch-sparc/config-up
p1567
ass(Vdescription
p1568
g1529
NVsparc64-smp
p1569
tp1570
(dp1571
Vhardware
p1572
Vmultiprocessor 64-bit UltraSPARC
p1573
ss(Vimage
p1574
g1529
NVsparc64-smp
p1575
tp1576
(dp1577
Vconfigs
p1578
(lp1579
Vkernelarch-sparc/config-smp
p1580
ass(g212
g1529
g181
tp1581
(dp1582
g215
(lp1583
Vsparc64
p1584
aVsparc64-smp
p1585
asg219
I01
ss(Vbase
p1586
Vx32
p1587
tp1588
(dp1589
Vkernel-arch
p1590
Vx86
p1591
sVfeaturesets
p1592
(lp1593
ss(Vabi
p1594
NVrt
p1595
tp1596
(dp1597
Vignore-changes
p1598
(lp1599
V*
p1600
ass(Vdescription
p1601
Ng1595
tp1602
(dp1603
Vpart-long-rt
p1604
VThis kernel includes the PREEMPT_RT realtime patch set.
p1605
sVpart-short-rt
p1606
VPREEMPT_RT
p1607
sVparts
p1608
(lp1609
Vrt
p1610
ass(Vversion
p1611
tp1612
(dp1613
Vsource
p1614
V5.10.4-1pexip2
p1615
sVupstream
p1616
V5.10
p1617
sVabiname_base
p1618
V5.10.0
p1619
sVabiname
p1620
V5.10.0-1pexip1
p1621
ss.