ccopy_reg
_reconstructor
p0
(cdebian_linux.config
ConfigCore
p1
c__builtin__
dict
p2
(dp3
(Vbase
p4
Vpowerpc
p5
tp6
(dp7
Vkernel-arch
p8
Vpowerpc
p9
sVfeaturesets
p10
(lp11
Vnone
p12
ass(Vbase
p13
g5
g12
tp14
(dp15
Vflavours
p16
(lp17
Vpowerpc
p18
aVpowerpc-smp
p19
aVpowerpc64
p20
asVimplicit-flavour
p21
I01
ss(Vdescription
p22
Vmips
p23
NVocteon
p24
tp25
(dp26
Vhardware
p27
VOcteon
p28
sVhardware-long
p29
VCavium Networks Octeon
p30
ss(Vimage
p31
Vmips64
p32
tp33
(dp34
Vinstall-stem
p35
Vvmlinux
p36
ss(Vbase
p37
Valpha
p38
tp39
(dp40
Vkernel-arch
p41
Valpha
p42
sg10
(lp43
g12
ass(Vimage
p44
g23
NV5kc-malta
p45
tp46
(dp47
Vconfigs
p48
(lp49
Vkernelarch-mips/config.5kc-malta
p50
ass(Vbuild
p51
Varmhf
p52
tp53
(dp54
Vvdso
p55
I01
sVimage-file
p56
Varch/arm/boot/zImage
p57
ss(Vimage
p58
g32
NV5kc-malta
p59
tp60
(dp61
Vconfigs
p62
(lp63
Vkernelarch-mips/config.5kc-malta
p64
ass(Vdescription
p65
Vi386
p66
tp67
(dp68
Vpart-long-pae
p69
VThis kernel requires PAE (Physical Address Extension).\u000aThis feature is supported by the Intel Pentium Pro/II/III/4/4M/D, Xeon,\u000aCore and Atom; AMD Geode NX, Athlon (K7), Duron, Opteron, Sempron,\u000aTurion or Phenom; Transmeta Efficeon; VIA C7; and some other processors.
p70
ss(Vdescription
p71
Vs390x
p72
NVs390x
p73
tp74
(dp75
Vhardware
p76
VIBM zSeries
p77
ss(Vdescription
p78
Vmipsel
p79
NVloongson-2f
p80
tp81
(dp82
Vhardware
p83
VLoongson 2F
p84
sVhardware-long
p85
VLemote Loongson 2F systems
p86
ss(g13
g79
g12
tp87
(dp88
g16
(lp89
V4kc-malta
p90
aV5kc-malta
p91
aVloongson-2e
p92
aVloongson-2f
p93
aVloongson-3
p94
asg21
I01
ss(Vrelations
p95
g52
tp96
(dp97
Vheaders%gcc-4.9
p98
Vlinux-compiler-gcc-4.9-arm
p99
ss(Vdescription
p100
g66
NV686-pae
p101
tp102
(dp103
Vparts
p104
(lp105
Vpae
p106
asVhardware
p107
Vmodern PCs
p108
sVhardware-long
p109
VPCs with one or more processors supporting PAE
p110
ss(Vbuild
p111
g66
tp112
(dp113
Vvdso
p114
I01
sVimage-file
p115
Varch/x86/boot/bzImage
p116
ss(Vdescription
p117
g5
NVpowerpc-smp
p118
tp119
(dp120
Vhardware
p121
Vmultiprocessor 32-bit PowerPC
p122
ss(Vdescription
p123
g23
NV5kc-malta
p124
tp125
(dp126
Vhardware
p127
VMIPS Malta (64-bit)
p128
sVhardware-long
p129
VMIPS Malta boards (64-bit)
p130
ss(Vdescription
p131
Vsh4
p132
NVsh7751r
p133
tp134
(dp135
Vhardware
p136
Vsh7751r
p137
sVhardware-long
p138
VRenesas SH7751R R2D plus board
p139
ss(Vbuild
p140
Vppc64el
p141
tp142
(dp143
Vvdso
p144
I01
sVimage-file
p145
Vvmlinux
p146
ss(Vdescription
p147
tp148
(dp149
Vpart-long-up
p150
VThis kernel is not suitable for SMP (multi-processor,\u000amulti-core or hyper-threaded) systems.
p151
sVpart-long-xen
p152
VThis kernel also runs on a Xen hypervisor.\u000aIt supports both privileged (dom0) and unprivileged (domU) operation.
p153
ss(Vbase
p154
NVrt
p155
tp156
(dp157
Venabled
p158
I01
ss(Vdescription
p159
g32
NVocteon
p160
tp161
(dp162
Vhardware
p163
VOcteon
p164
sVhardware-long
p165
VCavium Networks Octeon
p166
ss(Vrelations
p167
g66
tp168
(dp169
Vheaders%gcc-5
p170
Vlinux-compiler-gcc-5-x86
p171
ss(Vabi
p172
tp173
(dp174
Vabiname
p175
V1
p176
sVignore-changes
p177
(lp178
V__scm_destroy
p179
aV__scm_send
p180
aVscm_detach_fds
p181
aVscm_fp_dup
p182
aVefivar_validate
p183
aVget_thermal_instance
p184
aVinet_csk_reqsk_queue_add
p185
aVtcp_req_err
p186
aVmodule:drivers/gpu/drm/drm_kms_helper
p187
aVmodule:drivers/hv/hv_vmbus
p188
aVmodule:drivers/md/dm-snapshot
p189
aVmodule:drivers/mmc/host/sdhci
p190
aVmodule:drivers/mmc/host/sdhci*
p191
aVmodule:net/ceph/libceph
p192
ass(Vdescription
p193
Vppc64
p194
NVpowerpc64
p195
tp196
(dp197
Vhardware
p198
V64-bit PowerPC
p199
ss(Vbuild
p200
Vpowerpcspe
p201
tp202
(dp203
Vvdso
p204
I01
sVimage-file
p205
Vvmlinux
p206
ss(Vimage
p207
g52
tp208
(dp209
Vsuggests
p210
Vfdutils
p211
sVconfigs
p212
(lp213
Vkernelarch-arm/config
p214
asVinstall-stem
p215
Vvmlinuz
p216
ss(Vbuild
p217
Vamd64
p218
tp219
(dp220
Vdebug-info
p221
I01
sVvdso
p222
I01
sVimage-file
p223
Varch/x86/boot/bzImage
p224
ss(Vdescription
p225
g79
NV5kc-malta
p226
tp227
(dp228
Vhardware
p229
VMIPS Malta (64-bit)
p230
sVhardware-long
p231
VMIPS Malta boards (64-bit)
p232
ss(Vbuild
p233
g66
NV686-pae
p234
tp235
(dp236
Vdebug-info
p237
I01
ss(Vimage
p238
Vmips64el
p239
NV5kc-malta
p240
tp241
(dp242
Vconfigs
p243
(lp244
Vkernelarch-mips/config.5kc-malta
p245
ass(Vimage
p246
g194
NVpowerpc64
p247
tp248
(dp249
Vconfigs
p250
(lp251
Vkernelarch-powerpc/config-arch-64
p252
aVkernelarch-powerpc/config-arch-64-be
p253
ass(Vdescription
p254
Vm68k
p255
NVm68k
p256
tp257
(dp258
Vhardware
p259
VMotorola MC68020+ family
p260
ss(Vimage
p261
g72
tp262
(dp263
Vbootloaders
p264
(lp265
Vs390-tools
p266
asVconfigs
p267
(lp268
sVinstall-stem
p269
Vvmlinuz
p270
ss(g13
g23
g12
tp271
(dp272
g16
(lp273
V4kc-malta
p274
aV5kc-malta
p275
aVocteon
p276
asg21
I01
ss(g13
Vsparc64
p277
g12
tp278
(dp279
g16
(lp280
Vsparc64
p281
aVsparc64-smp
p282
asg21
I01
ss(Vbase
p283
tp284
(dp285
Vcompiler
p286
Vgcc-4.9
p287
sVfeaturesets
p288
(lp289
Vnone
p290
aVrt
p291
asVarches
p292
(lp293
Valpha
p294
aVamd64
p295
aVarm64
p296
aVarmel
p297
aVarmhf
p298
aVhppa
p299
aVi386
p300
aVm68k
p301
aVmips
p302
aVmipsel
p303
aVmips64
p304
aVmips64el
p305
aVor1k
p306
aVpowerpc
p307
aVpowerpcspe
p308
aVppc64
p309
aVppc64el
p310
aVs390
p311
aVs390x
p312
aVsh4
p313
aVsparc
p314
aVsparc64
p315
aVx32
p316
ass(Vimage
p317
g66
tp318
(dp319
Vbootloaders
p320
(lp321
Vgrub-pc
p322
aVextlinux
p323
asVconfigs
p324
(lp325
sVinstall-stem
p326
Vvmlinuz
p327
sVbreaks
p328
Vxserver-xorg-input-vmmouse (<< 1:13.0.99)
p329
ss(Vabi
p330
g72
tp331
(dp332
Vignore-changes
p333
(lp334
Vmodule:arch/s390/kvm/kvm
p335
ass(Vdescription
p336
g132
NVsh7785lcr
p337
tp338
(dp339
Vhardware
p340
Vsh7785lcr
p341
sVhardware-long
p342
VRenesas SH7785 reference board
p343
ss(Vdescription
p344
g218
Vnone
p345
Vamd64
p346
tp347
(dp348
Vparts
p349
(lp350
Vxen
p351
ass(Vdescription
p352
g277
NVsparc64
p353
tp354
(dp355
Vhardware
p356
Vuniprocessor 64-bit UltraSPARC
p357
ss(Vbase
p358
g239
tp359
(dp360
Vkernel-arch
p361
Vmips
p362
sg10
(lp363
g12
ass(Vrelations
p364
Vhppa
p365
tp366
(dp367
Vgcc-4.9
p368
Vgcc-4.9 <!stage1>, binutils-hppa64 <!stage1>, gcc-4.9-hppa64 <!stage1>
p369
ss(g13
g38
g12
tp370
(dp371
g16
(lp372
Valpha-generic
p373
aValpha-smp
p374
asg21
I01
ss(Vrelations
p375
Varmel
p376
tp377
(dp378
Vheaders%gcc-4.9
p379
Vlinux-compiler-gcc-4.9-arm
p380
ss(Vimage
p381
g79
NV5kc-malta
p382
tp383
(dp384
Vconfigs
p385
(lp386
Vkernelarch-mips/config.5kc-malta
p387
ass(Vbase
p388
g72
tp389
(dp390
Vkernel-arch
p391
Vs390
p392
sg10
(lp393
g12
ass(Vimage
p394
g79
NVloongson-3
p395
tp396
(dp397
Vconfigs
p398
(lp399
Vkernelarch-mips/config.loongson-3
p400
ass(Vbase
p401
g66
Vnone
p402
tp403
(dp404
Vflavours
p405
(lp406
V686
p407
aV686-pae
p408
ass(Vbase
p409
g255
tp410
(dp411
Vkernel-arch
p412
Vm68k
p413
sVcompiler
p414
Vgcc-4.8
p415
sVcflags
p416
V-ffreestanding
p417
sg10
(lp418
g12
ass(g13
g52
g12
tp419
(dp420
g16
(lp421
Varmmp
p422
aVarmmp-lpae
p423
asg21
I01
ss(g13
g376
g12
tp424
(dp425
g16
(lp426
Vmarvell
p427
aVversatile
p428
asg21
I01
ss(Vimage
p429
g38
tp430
(dp431
Vsuggests
p432
Vaboot, fdutils
p433
sVinstall-stem
p434
Vvmlinuz
p435
ss(Vimage
p436
g239
tp437
(dp438
Vinstall-stem
p439
Vvmlinux
p440
ss(g13
g201
g12
tp441
(dp442
g16
(lp443
Vpowerpcspe
p444
asg21
I01
ss(Vimage
p445
g141
NVpowerpc64le
p446
tp447
(dp448
Vconfigs
p449
(lp450
Vkernelarch-powerpc/config-arch-64
p451
aVkernelarch-powerpc/config-arch-64-le
p452
ass(Vbuild
p453
g5
tp454
(dp455
Vvdso
p456
I01
sVimage-file
p457
Vvmlinux
p458
ss(Vdescription
p459
NVrt
p460
tp461
(dp462
Vpart-short-rt
p463
VPREEMPT_RT
p464
sVpart-long-rt
p465
VThis kernel includes the PREEMPT_RT realtime patch set.
p466
sVparts
p467
(lp468
Vrt
p469
ass(g13
g72
g12
tp470
(dp471
g16
(lp472
Vs390x
p473
asg21
I01
ss(Vbuild
p474
g23
tp475
(dp476
Vimage-file
p477
Vvmlinux
p478
ss(Vrelations
p479
tp480
(dp481
Vgcc-4.8
p482
Vgcc-4.8 <!stage1>
p483
sVgcc-4.9
p484
Vgcc-4.9 <!stage1>
p485
sVinitramfs-tools
p486
Vinitramfs-tools (>= 0.110~)
p487
sVgcc-5
p488
Vgcc-5 <!stage1>
p489
sVinitramfs-fallback
p490
Vlinux-initramfs-tool
p491
ss(Vimage
p492
Varm64
p493
tp494
(dp495
Vinstall-stem
p496
Vvmlinuz
p497
ss(Vbuild
p498
g72
NVs390x
p499
tp500
(dp501
Vdebug-info
p502
I01
ss(Vbuild
p503
g132
tp504
(dp505
Vimage-file
p506
Varch/sh/boot/zImage
p507
ss(Vimage
p508
g194
tp509
(dp510
Vsuggests
p511
Vmkvmlinuz
p512
sVconfigs
p513
(lp514
sVinstall-stem
p515
Vvmlinux
p516
ss(Vabi
p517
Ng460
tp518
(dp519
Vignore-changes
p520
(lp521
V*
p522
ass(Vbase
p523
g141
tp524
(dp525
Vkernel-arch
p526
Vpowerpc
p527
sg10
(lp528
g12
ass(Vdescription
p529
g218
NVamd64
p530
tp531
(dp532
Vhardware
p533
V64-bit PCs
p534
sVhardware-long
p535
VPCs with AMD64, Intel 64 or VIA Nano processors
p536
ss(Vbuild
p537
g72
tp538
(dp539
Vvdso
p540
I01
sVimage-file
p541
Varch/s390/boot/image
p542
ss(Vdescription
p543
g365
NVparisc64-smp
p544
tp545
(dp546
Vhardware
p547
Vmultiprocessor 64-bit PA-RISC
p548
sVhardware-long
p549
VHP PA-RISC 64-bit SMP systems with support for more than 4 GB RAM
p550
ss(Vimage
p551
g5
NVpowerpc-smp
p552
tp553
(dp554
Vconfigs
p555
(lp556
Vpowerpc/config.powerpc
p557
aVpowerpc/config.powerpc-smp
p558
ass(Vbase
p559
g365
NVparisc64-smp
p560
tp561
(dp562
Vcflags
p563
V-fno-cse-follow-jumps
p564
sVoverride-host-type
p565
Vhppa64-linux-gnu
p566
ss(g13
g239
g12
tp567
(dp568
g16
(lp569
V5kc-malta
p570
aVloongson-3
p571
aVocteon
p572
asg21
I01
ss(Vimage
p573
g255
tp574
(dp575
Vsuggests
p576
Vvmelilo, fdutils
p577
sVinstall-stem
p578
Vvmlinuz
p579
ss(Vbuild
p580
g493
tp581
(dp582
Vdebug-info
p583
I01
sVvdso
p584
I01
sVimage-file
p585
Varch/arm64/boot/Image
p586
ss(Vdescription
p587
g141
NVpowerpc64le
p588
tp589
(dp590
Vhardware
p591
VLittle-endian 64-bit PowerPC
p592
ss(Vdescription
p593
g66
g402
V686-pae
p594
tp595
(dp596
Vparts
p597
(lp598
Vxen
p599
ass(Vdescription
p600
g5
NVpowerpc64
p601
tp602
(dp603
Vhardware
p604
V64-bit PowerPC
p605
ss(Vimage
p606
g277
NVsparc64-smp
p607
tp608
(dp609
Vconfigs
p610
(lp611
Vkernelarch-sparc/config-smp
p612
ass(Vimage
p613
g66
NV686-pae
p614
tp615
(dp616
Vconfigs
p617
(lp618
Vkernelarch-x86/config-arch-32
p619
aVi386/config.686-pae
p620
asVrecommends
p621
Vlibc6-i686
p622
ss(Vbase
p623
g493
tp624
(dp625
Vkernel-arch
p626
Varm64
p627
sVfeaturesets
p628
(lp629
Vnone
p630
ass(g13
g132
g12
tp631
(dp632
g16
(lp633
Vsh7751r
p634
aVsh7785lcr
p635
asg21
I01
ss(Vbase
p636
Vsparc
p637
tp638
(dp639
Vkernel-arch
p640
Vsparc
p641
sVfeaturesets
p642
(lp643
ss(Vimage
p644
g132
tp645
(dp646
Vsuggests
p647
Vfdutils
p648
sVinstall-stem
p649
Vvmlinuz
p650
ss(Vimage
p651
g5
tp652
(dp653
Vsuggests
p654
Vmkvmlinuz
p655
sVconfigs
p656
(lp657
sVinstall-stem
p658
Vvmlinux
p659
ss(Vabi
p660
g365
tp661
(dp662
Vignore-changes
p663
(lp664
Vdrm_dp_*
p665
ass(Vbase
p666
Vs390
p667
tp668
(dp669
Vkernel-arch
p670
Vs390
p671
sVfeaturesets
p672
(lp673
ss(Vimage
p674
g79
NV4kc-malta
p675
tp676
(dp677
Vconfigs
p678
(lp679
Vkernelarch-mips/config.4kc-malta
p680
ass(Vimage
p681
g32
NVocteon
p682
tp683
(dp684
Vconfigs
p685
(lp686
Vkernelarch-mips/config.octeon
p687
ass(g13
g255
g12
tp688
(dp689
g16
(lp690
Vm68k
p691
asg21
I01
ss(Vimage
p692
g218
NVamd64
p693
tp694
(dp695
Vconfigs
p696
(lp697
Vkernelarch-x86/config-arch-64
p698
ass(Vxen
p699
g218
g345
Vamd64
p700
tp701
(dp702
Vflavours
p703
(lp704
Vamd64
p705
ass(Vimage
p706
g23
tp707
(dp708
Vinstall-stem
p709
Vvmlinux
p710
ss(Vimage
p711
g493
NVarm64
p712
tp713
(dp714
s(Vbuild
p715
g277
tp716
(dp717
Vimage-file
p718
Varch/sparc/boot/zImage
p719
ss(Vimage
p720
g5
NVpowerpc64
p721
tp722
(dp723
Vconfigs
p724
(lp725
Vkernelarch-powerpc/config-arch-64
p726
aVkernelarch-powerpc/config-arch-64-be
p727
ass(Vimage
p728
g66
NV686
p729
tp730
(dp731
Vconfigs
p732
(lp733
Vkernelarch-x86/config-arch-32
p734
aVi386/config.686
p735
asVrecommends
p736
Vlibc6-i686
p737
ss(Vversion
p738
tp739
(dp740
Vupstream
p741
V4.4
p742
sVabiname
p743
V4.4.0-1
p744
sVsource
p745
V4.4.6-1
p746
sVabiname_base
p747
V4.4.0
p748
ss(Vdescription
p749
g376
NVmarvell
p750
tp751
(dp752
Vhardware
p753
VMarvell Kirkwood/Orion
p754
sVhardware-long
p755
VMarvell Kirkwood based systems (SheevaPlug, QNAP TS-119/TS-219, etc)\u000aand Orion 5181, 5182 and 5281 based systems (QNAP TS-109/TS-209, etc)
p756
ss(Vimage
p757
g365
tp758
(dp759
Vsuggests
p760
Vpalo
p761
sVinstall-stem
p762
Vvmlinux
p763
ss(Vdescription
p764
g38
NValpha-generic
p765
tp766
(dp767
Vhardware
p768
VAlpha
p769
sVhardware-long
p770
VDEC Alpha systems with extended kernel start address (Wildfire, Titan, Marvel)
p771
ss(Vimage
p772
g376
tp773
(dp774
Vsuggests
p775
Vfdutils
p776
sVconfigs
p777
(lp778
Vkernelarch-arm/config
p779
aVarmel/config
p780
asVinstall-stem
p781
Vvmlinuz
p782
ss(Vimage
p783
g23
NV4kc-malta
p784
tp785
(dp786
Vconfigs
p787
(lp788
Vkernelarch-mips/config.4kc-malta
p789
ass(Vbuild
p790
g376
tp791
(dp792
Vimage-file
p793
Varch/arm/boot/zImage
p794
ss(Vbase
p795
g66
tp796
(dp797
Vkernel-arch
p798
Vx86
p799
sVcompiler
p800
Vgcc-5
p801
sVfeaturesets
p802
(lp803
Vnone
p804
aVrt
p805
ass(Vdescription
p806
g79
NV4kc-malta
p807
tp808
(dp809
Vhardware
p810
VMIPS Malta
p811
sVhardware-long
p812
VMIPS Malta boards
p813
ss(Vbase
p814
g132
tp815
(dp816
Vkernel-arch
p817
Vsh
p818
sg10
(lp819
g12
ass(Vimage
p820
g79
tp821
(dp822
Vinstall-stem
p823
Vvmlinux
p824
ss(Vimage
p825
g218
tp826
(dp827
Vbootloaders
p828
(lp829
Vgrub-pc
p830
aVgrub-efi
p831
aVextlinux
p832
asVconfigs
p833
(lp834
sVinstall-stem
p835
Vvmlinuz
p836
sVbreaks
p837
Vxserver-xorg-input-vmmouse (<< 1:13.0.99)
p838
ss(Vimage
p839
g141
tp840
(dp841
Vsuggests
p842
Vmkvmlinuz
p843
sVconfigs
p844
(lp845
sVinstall-stem
p846
Vvmlinux
p847
ss(Vbuild
p848
g32
tp849
(dp850
Vimage-file
p851
Vvmlinux
p852
ss(Vbase
p853
g23
tp854
(dp855
Vkernel-arch
p856
Vmips
p857
sg10
(lp858
g12
ass(Vbase
p859
g218
Vrt
p860
tp861
(dp862
Vflavours
p863
(lp864
Vamd64
p865
ass(Vbuild
p866
g79
tp867
(dp868
Vimage-file
p869
Vvmlinux
p870
ss(g13
g194
g12
tp871
(dp872
g16
(lp873
Vpowerpc64
p874
asg21
I01
ss(Vbase
p875
g493
Vnone
p876
tp877
(dp878
Vflavours
p879
(lp880
Varm64
p881
ass(Vbase
p882
g66
Vrt
p883
tp884
(dp885
Vflavours
p886
(lp887
V686-pae
p888
ass(Vdescription
p889
g52
NVarmmp-lpae
p890
tp891
(dp892
Vhardware
p893
VARMv7 multiplatform compatible SoCs supporting LPAE
p894
sVhardware-long
p895
VARMv7 multiplatform kernel supporting LPAE. See\u000ahttps://wiki.debian.org/DebianKernel/ARMMP for details of supported\u000aplatforms.
p896
ss(Vdescription
p897
g239
NVloongson-3
p898
tp899
(dp900
Vhardware
p901
VLoongson 3A/3B
p902
sVhardware-long
p903
VLoongson 3A or 3B based systems (e.g. from Loongson or Lemote)
p904
ss(Vrelations
p905
g218
tp906
(dp907
Vheaders%gcc-5
p908
Vlinux-compiler-gcc-5-x86
p909
ss(Vimage
p910
g239
NVocteon
p911
tp912
(dp913
Vconfigs
p914
(lp915
Vkernelarch-mips/config.octeon
p916
ass(g13
g141
g12
tp917
(dp918
g16
(lp919
Vpowerpc64le
p920
asg21
I01
ss(Vdescription
p921
g376
NVversatile
p922
tp923
(dp924
Vhardware
p925
VVersatile
p926
sVhardware-long
p927
VVersatile systems (PB, AB, Qemu)
p928
ss(Vbuild
p929
g365
tp930
(dp931
Vimage-file
p932
Vvmlinux
p933
ss(Vbase
p934
g376
tp935
(dp936
Vkernel-arch
p937
Varm
p938
sg10
(lp939
g12
ass(Vbase
p940
g194
tp941
(dp942
Vkernel-arch
p943
Vpowerpc
p944
sg10
(lp945
g12
ass(Vdescription
p946
g365
NVparisc
p947
tp948
(dp949
Vhardware
p950
V32-bit PA-RISC
p951
sVhardware-long
p952
VHP PA-RISC 32-bit systems with max 4 GB RAM
p953
ss(Vrelations
p954
g72
tp955
(dp956
Vheaders%gcc-4.9
p957
Vlinux-compiler-gcc-4.9-s390
p958
ss(Vimage
p959
g277
tp960
(dp961
Vsuggests
p962
Vsilo, fdutils
p963
sVconfigs
p964
(lp965
sVinstall-stem
p966
Vvmlinuz
p967
ss(Vbase
p968
g79
tp969
(dp970
Vkernel-arch
p971
Vmips
p972
sg10
(lp973
g12
ass(Vdescription
p974
g23
NV4kc-malta
p975
tp976
(dp977
Vhardware
p978
VMIPS Malta
p979
sVhardware-long
p980
VMIPS Malta boards
p981
ss(Vimage
p982
g23
NVocteon
p983
tp984
(dp985
Vconfigs
p986
(lp987
Vkernelarch-mips/config.octeon
p988
ass(g13
g365
g12
tp989
(dp990
g16
(lp991
Vparisc
p992
aVparisc64-smp
p993
asg21
I01
ss(Vbase
p994
g32
tp995
(dp996
Vkernel-arch
p997
Vmips
p998
sg10
(lp999
g12
ass(Vbuild
p1000
g255
tp1001
(dp1002
Vimage-file
p1003
Vvmlinux.gz
p1004
ss(Vdescription
p1005
g5
NVpowerpc
p1006
tp1007
(dp1008
Vhardware
p1009
Vuniprocessor 32-bit PowerPC
p1010
ss(Vimage
p1011
g277
NVsparc64
p1012
tp1013
(dp1014
Vconfigs
p1015
(lp1016
Vkernelarch-sparc/config-up
p1017
ass(Vbase
p1018
g365
tp1019
(dp1020
Vkernel-arch
p1021
Vparisc
p1022
sg10
(lp1023
g12
ass(Vimage
p1024
g376
NVmarvell
p1025
tp1026
(dp1027
Vcheck-size-with-dtb
p1028
I01
sVbreaks
p1029
Vflash-kernel (<< 3.57~)
p1030
sVrecommends
p1031
Vu-boot-tools
p1032
sVcheck-size
p1033
L2097080L
ss(Vdescription
p1034
g493
NVarm64
p1035
tp1036
(dp1037
Vhardware
p1038
V64-bit ARMv8 machines
p1039
ss(Vbase
p1040
Vor1k
p1041
tp1042
(dp1043
Vkernel-arch
p1044
Vopenrisc
p1045
sVfeaturesets
p1046
(lp1047
ss(Vbase
p1048
g201
tp1049
(dp1050
Vkernel-arch
p1051
Vpowerpc
p1052
sg10
(lp1053
g12
ass(Vbuild
p1054
g194
tp1055
(dp1056
Vvdso
p1057
I01
sVimage-file
p1058
Vvmlinux
p1059
ss(Vimage
p1060
g239
NVloongson-3
p1061
tp1062
(dp1063
Vconfigs
p1064
(lp1065
Vkernelarch-mips/config.loongson-3
p1066
ass(Vimage
p1067
g52
NVarmmp-lpae
p1068
tp1069
(dp1070
Vconfigs
p1071
(lp1072
Varmhf/config.armmp
p1073
aVarmhf/config.lpae
p1074
ass(Vdescription
p1075
g239
NVocteon
p1076
tp1077
(dp1078
Vhardware
p1079
VOcteon
p1080
sVhardware-long
p1081
VCavium Networks Octeon
p1082
ss(Vbase
p1083
g277
tp1084
(dp1085
Vkernel-arch
p1086
Vsparc
p1087
sg10
(lp1088
g12
ass(Vdescription
p1089
g79
NVloongson-2e
p1090
tp1091
(dp1092
Vhardware
p1093
VLoongson 2E
p1094
sVhardware-long
p1095
VLemote Loongson 2E systems
p1096
ss(Vimage
p1097
tp1098
(dp1099
Vinitramfs-generators
p1100
(lp1101
Vinitramfs-tools
p1102
aVinitramfs-fallback
p1103
ass(Vimage
p1104
g79
NVloongson-2e
p1105
tp1106
(dp1107
Vconfigs
p1108
(lp1109
Vkernelarch-mips/config.loongson-2e
p1110
ass(Vbase
p1111
g52
tp1112
(dp1113
Vkernel-arch
p1114
Varm
p1115
sg10
(lp1116
g12
ass(Vbase
p1117
g218
tp1118
(dp1119
Vkernel-arch
p1120
Vx86
p1121
sVcompiler
p1122
Vgcc-5
p1123
sVfeaturesets
p1124
(lp1125
Vnone
p1126
aVrt
p1127
ass(Vdescription
p1128
g38
NValpha-smp
p1129
tp1130
(dp1131
Vhardware
p1132
VAlpha SMP
p1133
sVhardware-long
p1134
VDEC Alpha SMP systems with extended kernel start address (Wildfire, Titan, Marvel)
p1135
ss(Vdescription
p1136
g277
NVsparc64-smp
p1137
tp1138
(dp1139
Vhardware
p1140
Vmultiprocessor 64-bit UltraSPARC
p1141
ss(Vimage
p1142
g132
NVsh7785lcr
p1143
tp1144
(dp1145
Vrecommends
p1146
Vu-boot-tools
p1147
sVcheck-size
p1148
L4194304L
ss(Vimage
p1149
g72
NVs390x
p1150
tp1151
(dp1152
Vconfigs
p1153
(lp1154
Vkernelarch-s390/config-arch-64
p1155
ass(Vdescription
p1156
g239
NV5kc-malta
p1157
tp1158
(dp1159
Vhardware
p1160
VMIPS Malta
p1161
sVhardware-long
p1162
VMIPS Malta boards
p1163
ss(Vimage
p1164
g79
NVloongson-2f
p1165
tp1166
(dp1167
Vconfigs
p1168
(lp1169
Vkernelarch-mips/config.loongson-2f
p1170
asVrecommends
p1171
Vlibc6-loongson2f
p1172
ss(Vdescription
p1173
g52
NVarmmp
p1174
tp1175
(dp1176
Vhardware
p1177
VARMv7 multiplatform compatible SoCs
p1178
sVhardware-long
p1179
VARMv7 multiplatform kernel. See\u000ahttps://wiki.debian.org/DebianKernel/ARMMP for details of supported\u000aplatforms
p1180
ss(Vbuild
p1181
g239
tp1182
(dp1183
Vimage-file
p1184
Vvmlinux
p1185
ss(g13
g32
g12
tp1186
(dp1187
g16
(lp1188
V5kc-malta
p1189
aVocteon
p1190
asg21
I01
ss(Vimage
p1191
g201
tp1192
(dp1193
Vsuggests
p1194
Vmkvmlinuz
p1195
sVinstall-stem
p1196
Vvmlinux
p1197
ss(Vbase
p1198
g218
g345
tp1199
(dp1200
Vflavours
p1201
(lp1202
Vamd64
p1203
ass(Vdescription
p1204
g66
NV686
p1205
tp1206
(dp1207
Vhardware
p1208
Volder PCs
p1209
sVhardware-long
p1210
VPCs with one or more processors not supporting PAE
p1211
ss(Vdescription
p1212
g79
NVloongson-3
p1213
tp1214
(dp1215
Vhardware
p1216
VLoongson 3A/3B
p1217
sVhardware-long
p1218
VLoongson 3A or 3B based systems (e.g. from Loongson or Lemote)
p1219
ss(Vbuild
p1220
g38
tp1221
(dp1222
Vimage-file
p1223
Varch/alpha/boot/vmlinux.gz
p1224
ss(Vdescription
p1225
g201
tp1226
(dp1227
Vhardware
p1228
V32-bit PowerPC with SPE (instead of AltiVec) with SMP support
p1229
ss(Vdescription
p1230
g32
NV5kc-malta
p1231
tp1232
(dp1233
Vhardware
p1234
VMIPS Malta
p1235
sVhardware-long
p1236
VMIPS Malta boards
p1237
ss(Vbase
p1238
Vx32
p1239
tp1240
(dp1241
Vkernel-arch
p1242
Vx86
p1243
sVfeaturesets
p1244
(lp1245
sstp1246
Rp1247
.