ccopy_reg
_reconstructor
p0
(cdebian_linux.config
ConfigCore
p1
c__builtin__
dict
p2
(dp3
(S'image'
p4
S'amd64'
p5
tp6
(dp7
S'install-stem'
p8
S'vmlinuz'
p9
sS'configs'
p10
(lp11
sS'bootloaders'
p12
(lp13
S'grub-pc'
p14
aS'extlinux'
p15
aS'lilo'
p16
ass(S'base'
p17
g5
S'none'
p18
tp19
(dp20
S'flavours'
p21
(lp22
S'amd64'
p23
ass(S'build'
p24
S'armel'
p25
tp26
(dp27
S'image-file'
p28
S'arch/arm/boot/zImage'
p29
ss(S'image'
p30
S'ia64'
p31
tp32
(dp33
S'suggests'
p34
S'fdutils'
p35
sS'bootloaders'
p36
(lp37
S'elilo'
p38
asS'install-stem'
p39
S'vmlinuz'
p40
ss(S'image'
p41
S'sparc'
p42
NS'sparc32'
p43
tp44
(dp45
S'image-postproc'
p46
S'sparc32-image-postproc'
p47
ss(S'image'
p48
S'powerpc'
p49
NS'powerpc64'
p50
tp51
(dp52
S'configs'
p53
(lp54
S'kernelarch-powerpc/config-arch-64'
p55
aS'powerpc/config.powerpc64'
p56
ass(S'description'
p57
g49
NS'powerpc'
p58
tp59
(dp60
S'hardware'
p61
S'uniprocessor 32-bit PowerPC'
p62
ss(S'version'
p63
tp64
(dp65
S'abiname'
p66
S'3.14-1'
p67
sS'source'
p68
V3.14.5-1
p69
sS'upstream'
p70
S'3.14'
p71
ss(S'description'
p72
g5
g18
S'amd64'
p73
tp74
(dp75
S'parts'
p76
(lp77
S'xen'
p78
ass(S'description'
p79
S'mipsel'
p80
NS'sb1a-bcm91480b'
p81
tp82
(dp83
S'hardware'
p84
S'BCM91480B'
p85
sS'hardware-long'
p86
S'Broadcom BCM91480B systems (aka BigSur)'
p87
ss(S'build'
p88
S's390'
p89
NS's390x'
p90
tp91
(dp92
S'debug-info'
p93
I01
ss(S'image'
p94
g5
NS'amd64'
p95
tp96
(dp97
S'configs'
p98
(lp99
S'kernelarch-x86/config-arch-64'
p100
ass(S'base'
p101
S'alpha'
p102
tp103
(dp104
S'kernel-arch'
p105
S'alpha'
p106
sS'featuresets'
p107
(lp108
S'none'
p109
ass(S'base'
p110
S'armhf'
p111
g109
tp112
(dp113
S'implicit-flavour'
p114
I01
sS'flavours'
p115
(lp116
S'armmp'
p117
aS'armmp-lpae'
p118
ass(S'image'
p119
S'sparc64'
p120
NS'sparc64-smp'
p121
tp122
(dp123
S'configs'
p124
(lp125
S'kernelarch-sparc/config-smp'
p126
ass(S'base'
p127
S'i386'
p128
S'rt'
p129
tp130
(dp131
S'flavours'
p132
(lp133
S'686-pae'
p134
ass(S'description'
p135
g80
NS'5kc-malta'
p136
tp137
(dp138
S'hardware'
p139
S'MIPS Malta (64-bit)'
p140
sS'hardware-long'
p141
S'MIPS Malta boards (64-bit)'
p142
ss(S'description'
p143
g31
NS'itanium'
p144
tp145
(dp146
S'hardware'
p147
S'Itanium'
p148
ss(S'relations'
p149
g128
tp150
(dp151
S'headers%gcc-4.8'
p152
S'linux-compiler-gcc-4.8-x86'
p153
ss(S'image'
p154
g80
NS'5kc-malta'
p155
tp156
(dp157
S'configs'
p158
(lp159
S'mips/config.5kc-malta'
p160
ass(S'description'
p161
g80
NS'sb1-bcm91250a'
p162
tp163
(dp164
S'hardware'
p165
S'BCM91250A'
p166
sS'hardware-long'
p167
S'Broadcom BCM91250A systems (aka SWARM)'
p168
ss(S'image'
p169
g49
tp170
(dp171
S'suggests'
p172
S'mkvmlinuz'
p173
sS'configs'
p174
(lp175
sS'install-stem'
p176
S'vmlinux'
p177
ss(S'build'
p178
g128
NS'686-pae'
p179
tp180
(dp181
S'debug-info'
p182
I01
ss(S'image'
p183
g25
NS'orion5x'
p184
tp185
(dp186
S'check-size'
p187
S'1572792'
p188
sS'configs'
p189
(lp190
S'armel/config-reduced'
p191
aS'armel/config.orion5x'
p192
asS'recommends'
p193
S'uboot-mkimage'
p194
ss(S'base'
p195
g5
S'rt'
p196
tp197
(dp198
S'flavours'
p199
(lp200
S'amd64'
p201
ass(S'image'
p202
g111
NS'armmp-lpae'
p203
tp204
(dp205
S'configs'
p206
(lp207
S'armhf/config.armmp'
p208
aS'armhf/config.lpae'
p209
ass(S'build'
p210
S'ppc64'
p211
tp212
(dp213
S'image-file'
p214
S'vmlinux'
p215
ss(S'description'
p216
g128
S'none'
p217
S'amd64'
p218
tp219
(dp220
S'parts'
p221
(lp222
S'xen'
p223
ass(S'description'
p224
g120
NS'sparc64'
p225
tp226
(dp227
S'hardware'
p228
S'uniprocessor 64-bit UltraSPARC'
p229
ss(S'base'
p230
S'arm64'
p231
tp232
(dp233
S'kernel-arch'
p234
S'arm64'
p235
sS'featuresets'
p236
(lp237
S'none'
p238
ass(S'base'
p239
g128
tp240
(dp241
S'kernel-arch'
p242
S'x86'
p243
sS'featuresets'
p244
(lp245
S'none'
p246
aS'rt'
p247
ass(S'image'
p248
S's390x'
p249
NS's390x'
p250
tp251
(dp252
S'configs'
p253
(lp254
S'kernelarch-s390/config-arch-64'
p255
ass(S'base'
p256
g80
tp257
(dp258
S'kernel-arch'
p259
S'mips'
p260
sg107
(lp261
g109
ass(S'relations'
p262
g5
tp263
(dp264
S'headers%gcc-4.8'
p265
S'linux-compiler-gcc-4.8-x86'
p266
ss(S'image'
p267
g231
NS'arm64'
p268
tp269
(dp270
s(S'base'
p271
tp272
(dp273
S'arches'
p274
(lp275
S'alpha'
p276
aS'amd64'
p277
aS'arm64'
p278
aS'armel'
p279
aS'armhf'
p280
aS'hppa'
p281
aS'i386'
p282
aS'ia64'
p283
aS'm68k'
p284
aS'mips'
p285
aS'mipsel'
p286
aS'or1k'
p287
aS'powerpc'
p288
aS'powerpcspe'
p289
aS'ppc64'
p290
aS'ppc64el'
p291
aS's390'
p292
aS's390x'
p293
aS'sh4'
p294
aS'sparc'
p295
aS'sparc64'
p296
aS'x32'
p297
asS'featuresets'
p298
(lp299
S'none'
p300
aS'rt'
p301
asS'compiler'
p302
S'gcc-4.8'
p303
ss(S'description'
p304
S'mips'
p305
NS'sb1-bcm91250a'
p306
tp307
(dp308
S'hardware'
p309
S'BCM91250A'
p310
sS'hardware-long'
p311
S'Broadcom BCM91250A systems (aka SWARM)'
p312
ss(S'description'
p313
g128
NS'486'
p314
tp315
(dp316
S'hardware'
p317
S'older PCs'
p318
sS'parts'
p319
(lp320
S'up'
p321
asS'hardware-long'
p322
S'PCs with a single processor not supporting PAE'
p323
ss(S'description'
p324
g111
NS'armmp-lpae'
p325
tp326
(dp327
S'hardware'
p328
S'ARMv7 multiplatform compatible SoCs supporting LPAE'
p329
sS'hardware-long'
p330
S'ARMv7 multiplatform kernel supporting LPAE'
p331
ss(S'relations'
p332
g89
tp333
(dp334
S'headers%gcc-4.8'
p335
S'linux-compiler-gcc-4.8-s390'
p336
ss(g110
g80
g109
tp337
(dp338
g114
I01
sg115
(lp339
S'sb1-bcm91250a'
p340
aS'sb1a-bcm91480b'
p341
aS'4kc-malta'
p342
aS'5kc-malta'
p343
aS'loongson-2e'
p344
aS'loongson-2f'
p345
ass(S'description'
p346
S'powerpcspe'
p347
tp348
(dp349
S'hardware'
p350
S'32-bit PowerPC with SPE (instead of AltiVec) with SMP support'
p351
ss(S'relations'
p352
tp353
(dp354
S'gcc-4.8'
p355
S'gcc-4.8'
p356
sS'initramfs-fallback'
p357
S'linux-initramfs-tool'
p358
sS'gcc-4.7'
p359
S'gcc-4.7'
p360
sS'gcc-4.6'
p361
S'gcc-4.6'
p362
sS'gcc-4.4'
p363
S'gcc-4.4'
p364
sS'initramfs-tools'
p365
S'initramfs-tools (>= 0.110~)'
p366
ss(S'build'
p367
g347
tp368
(dp369
S'image-file'
p370
S'vmlinux'
p371
ss(g110
S'sh4'
p372
g109
tp373
(dp374
g114
I01
sg115
(lp375
S'sh7751r'
p376
aS'sh7785lcr'
p377
ass(S'build'
p378
S'hppa'
p379
tp380
(dp381
S'image-file'
p382
S'vmlinux'
p383
ss(S'image'
p384
g120
NS'sparc64'
p385
tp386
(dp387
S'configs'
p388
(lp389
S'kernelarch-sparc/config-up'
p390
ass(S'description'
p391
g49
NS'powerpc-smp'
p392
tp393
(dp394
S'hardware'
p395
S'multiprocessor 32-bit PowerPC'
p396
ss(S'description'
p397
g102
NS'alpha-legacy'
p398
tp399
(dp400
S'hardware'
p401
S'Alpha Legacy'
p402
sS'hardware-long'
p403
S'DEC Alpha systems with legacy kernel start address'
p404
ss(S'base'
p405
g25
tp406
(dp407
S'kernel-arch'
p408
S'arm'
p409
sg107
(lp410
g109
ass(S'description'
p411
g25
NS'orion5x'
p412
tp413
(dp414
S'hardware'
p415
S'Marvell Orion'
p416
sS'hardware-long'
p417
S'Marvell Orion 5181, 5182 and 5281 based systems (QNAP TS-109/TS-209, etc)'
p418
ss(S'base'
p419
g42
tp420
(dp421
S'kernel-arch'
p422
S'sparc'
p423
sg107
(lp424
g109
ass(S'base'
p425
g347
tp426
(dp427
S'kernel-arch'
p428
S'powerpc'
p429
sg107
(lp430
g109
ass(g110
g89
g109
tp431
(dp432
g114
I01
sg115
(lp433
S's390x'
p434
ass(S'description'
p435
g305
NS'r4k-ip22'
p436
tp437
(dp438
S'hardware'
p439
S'SGI IP22'
p440
sS'hardware-long'
p441
S'SGI IP22 systems (Indy, Indigo2)'
p442
ss(S'description'
p443
g379
NS'parisc'
p444
tp445
(dp446
S'hardware'
p447
S'32-bit PA-RISC'
p448
sS'hardware-long'
p449
S'HP PA-RISC 32-bit systems with max 4 GB RAM'
p450
ss(S'description'
p451
g372
NS'sh7785lcr'
p452
tp453
(dp454
S'hardware'
p455
S'sh7785lcr'
p456
sS'hardware-long'
p457
S'Renesas SH7785 reference board'
p458
ss(g110
g249
g109
tp459
(dp460
g114
I01
sg115
(lp461
S's390x'
p462
ass(S'base'
p463
g305
tp464
(dp465
S'kernel-arch'
p466
S'mips'
p467
sg107
(lp468
g109
ass(S'image'
p469
g128
NS'amd64'
p470
tp471
(dp472
S'configs'
p473
(lp474
S'kernelarch-x86/config-arch-64'
p475
asS'recommends'
p476
S'libc6-i686'
p477
ss(S'build'
p478
g5
tp479
(dp480
S'debug-info'
p481
I01
sS'image-file'
p482
S'arch/x86/boot/bzImage'
p483
ss(S'image'
p484
g89
NS's390x'
p485
tp486
(dp487
S'configs'
p488
(lp489
S'kernelarch-s390/config-arch-64'
p490
ass(S'build'
p491
g42
tp492
(dp493
S'image-file'
p494
S'arch/sparc/boot/zImage'
p495
ss(S'image'
p496
g80
tp497
(dp498
S'install-stem'
p499
S'vmlinux'
p500
sS'initramfs'
p501
I00
ss(S'description'
p502
g25
NS'mv78xx0'
p503
tp504
(dp505
S'hardware'
p506
S'Marvell 78xx0'
p507
sS'hardware-long'
p508
S'Marvell DB-78xx0-BP Development Board'
p509
ss(S'build'
p510
g49
tp511
(dp512
S'image-file'
p513
S'vmlinux'
p514
ss(S'build'
p515
g231
tp516
(dp517
S'debug-info'
p518
I01
sS'image-file'
p519
S'arch/arm64/boot/Image'
p520
ss(S'build'
p521
g80
tp522
(dp523
S'image-file'
p524
S'vmlinux'
p525
ss(S'base'
p526
g5
tp527
(dp528
S'kernel-arch'
p529
S'x86'
p530
sS'featuresets'
p531
(lp532
S'none'
p533
aS'rt'
p534
ass(S'base'
p535
g31
tp536
(dp537
S'kernel-arch'
p538
S'ia64'
p539
sg107
(lp540
g109
asS'compiler'
p541
S'gcc-4.6'
p542
ss(S'base'
p543
S'm68k'
p544
tp545
(dp546
S'kernel-arch'
p547
S'm68k'
p548
sg107
(lp549
g109
asS'cflags'
p550
S'-ffreestanding'
p551
sS'compiler'
p552
S'gcc-4.8'
p553
ss(g110
g211
g109
tp554
(dp555
g114
I01
sg115
(lp556
S'powerpc64'
p557
ass(S'base'
p558
g89
tp559
(dp560
S'kernel-arch'
p561
S's390'
p562
sg107
(lp563
g109
ass(g110
g25
g109
tp564
(dp565
g114
I01
sg115
(lp566
S'kirkwood'
p567
aS'mv78xx0'
p568
aS'orion5x'
p569
aS'versatile'
p570
ass(S'image'
p571
g25
NS'ixp4xx'
p572
tp573
(dp574
S'check-size'
p575
S'1441760'
p576
sS'configs'
p577
(lp578
S'armel/config-reduced'
p579
aS'armel/config.ixp4xx'
p580
ass(S'image'
p581
g128
NS'686-pae'
p582
tp583
(dp584
S'configs'
p585
(lp586
S'kernelarch-x86/config-arch-32'
p587
aS'i386/config.686-pae'
p588
asS'recommends'
p589
S'libc6-i686'
p590
ss(S'description'
p591
g305
NS'octeon'
p592
tp593
(dp594
S'hardware'
p595
S'Octeon'
p596
sS'hardware-long'
p597
S'Cavium Networks Octeon'
p598
ss(S'description'
p599
g128
tp600
(dp601
S'part-long-pae'
p602
S'This kernel requires PAE (Physical Address Extension).\nThis feature is supported by the Intel Pentium Pro/II/III/4/4M/D, Xeon,\nCore and Atom; AMD Geode NX, Athlon (K7), Duron, Opteron, Sempron,\nTurion or Phenom; Transmeta Efficeon; VIA C7; and some other processors.'
p603
ss(S'description'
p604
g25
NS'kirkwood'
p605
tp606
(dp607
S'hardware'
p608
S'Marvell Kirkwood'
p609
sS'hardware-long'
p610
S'Marvell Kirkwood based systems (SheevaPlug, QNAP TS-119/TS-219, etc)'
p611
ss(S'image'
p612
g111
tp613
(dp614
S'suggests'
p615
S'fdutils'
p616
sS'configs'
p617
(lp618
S'kernelarch-arm/config'
p619
aS'armhf/config'
p620
asS'install-stem'
p621
S'vmlinuz'
p622
ss(S'xen'
p623
g5
g18
S'amd64'
p624
tp625
(dp626
S'flavours'
p627
(lp628
S'amd64'
p629
ass(S'image'
p630
g25
tp631
(dp632
S'suggests'
p633
S'fdutils'
p634
sS'configs'
p635
(lp636
S'kernelarch-arm/config'
p637
aS'armel/config'
p638
asS'install-stem'
p639
S'vmlinuz'
p640
ss(S'image'
p641
g89
tp642
(dp643
S'install-stem'
p644
S'vmlinuz'
p645
sS'configs'
p646
(lp647
sS'bootloaders'
p648
(lp649
S's390-tools'
p650
ass(S'description'
p651
g305
NS'4kc-malta'
p652
tp653
(dp654
S'hardware'
p655
S'MIPS Malta'
p656
sS'hardware-long'
p657
S'MIPS Malta boards'
p658
ss(S'relations'
p659
g25
tp660
(dp661
S'headers%gcc-4.8'
p662
S'linux-compiler-gcc-4.8-arm'
p663
ss(S'image'
p664
g379
tp665
(dp666
S'suggests'
p667
S'palo'
p668
sS'install-stem'
p669
S'vmlinux'
p670
ss(S'image'
p671
g347
tp672
(dp673
S'suggests'
p674
S'mkvmlinuz'
p675
sS'install-stem'
p676
S'vmlinux'
p677
ss(S'relations'
p678
g379
tp679
(dp680
S'gcc-4.8'
p681
S'gcc-4.8, binutils-hppa64, gcc-4.8-hppa64'
p682
ss(S'abi'
p683
g49
tp684
(dp685
S'ignore-changes'
p686
(lp687
S'nf_hooks_needed'
p688
ass(S'description'
p689
g80
NS'4kc-malta'
p690
tp691
(dp692
S'hardware'
p693
S'MIPS Malta'
p694
sS'hardware-long'
p695
S'MIPS Malta boards'
p696
ss(S'description'
p697
g49
NS'powerpc64'
p698
tp699
(dp700
S'hardware'
p701
S'64-bit PowerPC'
p702
ss(S'image'
p703
g102
tp704
(dp705
S'suggests'
p706
S'aboot, fdutils'
p707
sS'install-stem'
p708
S'vmlinuz'
p709
ss(S'description'
p710
g544
NS'm68k'
p711
tp712
(dp713
S'hardware'
p714
S'Motorola MC68020+ family'
p715
ss(S'description'
p716
g89
NS's390x'
p717
tp718
(dp719
S'hardware'
p720
S'IBM zSeries'
p721
ss(S'description'
p722
g379
NS'parisc64-smp'
p723
tp724
(dp725
S'hardware'
p726
S'multiprocessor 64-bit PA-RISC'
p727
sS'hardware-long'
p728
S'HP PA-RISC 64-bit SMP systems with support for more than 4 GB RAM'
p729
ss(S'base'
p730
S'or1k'
p731
tp732
(dp733
S'kernel-arch'
p734
S'openrisc'
p735
sS'featuresets'
p736
(lp737
ss(S'description'
p738
g249
NS's390x'
p739
tp740
(dp741
S'hardware'
p742
S'IBM zSeries'
p743
ss(S'base'
p744
g249
tp745
(dp746
S'kernel-arch'
p747
S's390'
p748
sg107
(lp749
g109
ass(S'image'
p750
g42
NS'sparc64'
p751
tp752
(dp753
S'configs'
p754
(lp755
S'kernelarch-sparc/config-up'
p756
ass(S'image'
p757
g120
tp758
(dp759
S'suggests'
p760
S'silo, fdutils'
p761
sS'configs'
p762
(lp763
sS'install-stem'
p764
S'vmlinuz'
p765
ss(S'image'
p766
g211
tp767
(dp768
S'suggests'
p769
S'mkvmlinuz'
p770
sS'configs'
p771
(lp772
sS'install-stem'
p773
S'vmlinux'
p774
ss(S'image'
p775
g305
tp776
(dp777
S'install-stem'
p778
S'vmlinux'
p779
sS'initramfs'
p780
I00
ss(S'image'
p781
g128
tp782
(dp783
S'install-stem'
p784
S'vmlinuz'
p785
sS'configs'
p786
(lp787
sS'bootloaders'
p788
(lp789
S'grub-pc'
p790
aS'extlinux'
p791
aS'lilo'
p792
ass(g110
g42
g109
tp793
(dp794
g114
I01
sg115
(lp795
S'sparc64'
p796
aS'sparc64-smp'
p797
ass(S'base'
p798
g211
tp799
(dp800
S'kernel-arch'
p801
S'powerpc'
p802
sg107
(lp803
g109
ass(g110
g305
g109
tp804
(dp805
g114
I01
sg115
(lp806
S'r4k-ip22'
p807
aS'r5k-ip32'
p808
aS'sb1-bcm91250a'
p809
aS'sb1a-bcm91480b'
p810
aS'4kc-malta'
p811
aS'5kc-malta'
p812
aS'octeon'
p813
ass(S'description'
p814
g128
g217
S'686-pae'
p815
tp816
(dp817
S'parts'
p818
(lp819
S'xen'
p820
ass(g110
g31
g109
tp821
(dp822
g114
I01
sg115
(lp823
S'itanium'
p824
aS'mckinley'
p825
ass(S'base'
p826
g231
S'none'
p827
tp828
(dp829
S'flavours'
p830
(lp831
S'arm64'
p832
ass(S'image'
p833
g372
NS'sh7785lcr'
p834
tp835
(dp836
S'check-size'
p837
S'4194304'
p838
sS'recommends'
p839
S'uboot-mkimage'
p840
ss(S'build'
p841
g249
tp842
(dp843
S'image-file'
p844
S'arch/s390/boot/image'
p845
ss(S'abi'
p846
NS'rt'
p847
tp848
(dp849
S'ignore-changes'
p850
(lp851
S'*'
p852
ass(S'image'
p853
g25
NS'kirkwood'
p854
tp855
(dp856
S'check-size'
p857
S'2097080'
p858
sS'recommends'
p859
S'uboot-mkimage'
p860
ss(S'build'
p861
g102
tp862
(dp863
S'image-file'
p864
S'arch/alpha/boot/vmlinux.gz'
p865
ss(S'description'
p866
g80
NS'loongson-2f'
p867
tp868
(dp869
S'hardware'
p870
S'Loongson 2F'
p871
sS'hardware-long'
p872
S'Lemote Loongson 2F systems'
p873
ss(S'description'
p874
g80
NS'loongson-2e'
p875
tp876
(dp877
S'hardware'
p878
S'Loongson 2E'
p879
sS'hardware-long'
p880
S'Lemote Loongson 2E systems'
p881
ss(S'base'
p882
g379
NS'parisc64-smp'
p883
tp884
(dp885
S'override-host-type'
p886
S'hppa64-linux-gnu'
p887
sS'cflags'
p888
S'-fno-cse-follow-jumps'
p889
ss(S'description'
p890
g372
NS'sh7751r'
p891
tp892
(dp893
S'hardware'
p894
S'sh7751r'
p895
sS'hardware-long'
p896
S'Renesas SH7751R R2D plus board'
p897
ss(S'base'
p898
S'x32'
p899
tp900
(dp901
S'kernel-arch'
p902
S'x86'
p903
sS'featuresets'
p904
(lp905
ss(S'build'
p906
g372
tp907
(dp908
S'image-file'
p909
S'arch/sh/boot/zImage'
p910
ss(S'image'
p911
g544
tp912
(dp913
S'suggests'
p914
S'vmelilo, fdutils'
p915
sS'install-stem'
p916
S'vmlinuz'
p917
ss(S'description'
p918
g111
NS'armmp'
p919
tp920
(dp921
S'hardware'
p922
S'ARMv7 multiplatform compatible SoCs'
p923
sS'hardware-long'
p924
S'ARMv7 multiplatform kernel for Marvell Armada 370/xp, Freescale iMX5x/iMX6'
p925
ss(S'description'
p926
Ng847
tp927
(dp928
S'part-long-rt'
p929
S'This kernel includes the PREEMPT_RT realtime patch set.'
p930
sS'parts'
p931
(lp932
S'rt'
p933
asS'part-short-rt'
p934
S'PREEMPT_RT'
p935
ss(S'description'
p936
g305
NS'sb1a-bcm91480b'
p937
tp938
(dp939
S'hardware'
p940
S'BCM91480B'
p941
sS'hardware-long'
p942
S'Broadcom BCM91480B systems (aka BigSur)'
p943
ss(S'build'
p944
g31
tp945
(dp946
S'image-file'
p947
S'vmlinux.gz'
p948
ss(S'base'
p949
g111
tp950
(dp951
S'kernel-arch'
p952
S'arm'
p953
sg107
(lp954
g109
ass(S'image'
p955
g372
tp956
(dp957
S'suggests'
p958
S'fdutils'
p959
sS'install-stem'
p960
S'vmlinuz'
p961
ss(S'base'
p962
g379
tp963
(dp964
S'kernel-arch'
p965
S'parisc'
p966
sg107
(lp967
g109
ass(S'description'
p968
g42
NS'sparc32'
p969
tp970
(dp971
S'hardware'
p972
S'uniprocessor sparc32 (sun4m)'
p973
ss(S'base'
p974
g372
tp975
(dp976
S'kernel-arch'
p977
S'sh'
p978
sg107
(lp979
g109
asS'compiler'
p980
S'gcc-4.7'
p981
ss(S'image'
p982
g42
tp983
(dp984
S'suggests'
p985
S'silo, fdutils'
p986
sS'configs'
p987
(lp988
sS'install-stem'
p989
S'vmlinuz'
p990
ss(S'image'
p991
g80
NS'sb1a-bcm91480b'
p992
tp993
(dp994
S'configs'
p995
(lp996
S'mips/config.sb1a-bcm91480b'
p997
ass(S'description'
p998
tp999
(dp1000
S'part-long-up'
p1001
S'This kernel is not suitable for SMP (multi-processor,\nmulti-core or hyper-threaded) systems.'
p1002
sS'part-long-xen'
p1003
S'This kernel also runs on a Xen hypervisor.\nIt supports both privileged (dom0) and unprivileged (domU) operation.'
p1004
ss(S'build'
p1005
g120
tp1006
(dp1007
S'image-file'
p1008
S'arch/sparc/boot/zImage'
p1009
ss(S'relations'
p1010
g111
tp1011
(dp1012
S'headers%gcc-4.8'
p1013
S'linux-compiler-gcc-4.8-arm'
p1014
ss(S'description'
p1015
g305
NS'5kc-malta'
p1016
tp1017
(dp1018
S'hardware'
p1019
S'MIPS Malta (64-bit)'
p1020
sS'hardware-long'
p1021
S'MIPS Malta boards (64-bit)'
p1022
ss(S'description'
p1023
g25
NS'versatile'
p1024
tp1025
(dp1026
S'hardware'
p1027
S'Versatile'
p1028
sS'hardware-long'
p1029
S'Versatile systems (PB, AB, Qemu)'
p1030
ss(S'description'
p1031
g42
NS'sparc64'
p1032
tp1033
(dp1034
S'hardware'
p1035
S'uniprocessor 64-bit UltraSPARC'
p1036
ss(S'build'
p1037
g305
tp1038
(dp1039
S'image-file'
p1040
S'vmlinux'
p1041
ss(S'description'
p1042
g128
NS'amd64'
p1043
tp1044
(dp1045
S'hardware'
p1046
S'64-bit PCs'
p1047
sS'parts'
p1048
(lp1049
S'xen'
p1050
asS'hardware-long'
p1051
S'PCs with AMD64, Intel 64 or VIA Nano processors'
p1052
ss(S'relations'
p1053
g249
tp1054
(dp1055
S'headers%gcc-4.8'
p1056
S'linux-compiler-gcc-4.8-s390'
p1057
ss(S'image'
p1058
g49
NS'powerpc-smp'
p1059
tp1060
(dp1061
S'configs'
p1062
(lp1063
S'powerpc/config.powerpc'
p1064
aS'powerpc/config.powerpc-smp'
p1065
ass(S'base'
p1066
g49
tp1067
(dp1068
S'kernel-arch'
p1069
S'powerpc'
p1070
sg107
(lp1071
g109
ass(S'image'
p1072
g80
NS'sb1-bcm91250a'
p1073
tp1074
(dp1075
S'configs'
p1076
(lp1077
S'mips/config.sb1-bcm91250a'
p1078
ass(S'base'
p1079
NS'rt'
p1080
tp1081
(dp1082
S'enabled'
p1083
I01
ss(S'description'
p1084
g231
NS'arm64'
p1085
tp1086
(dp1087
S'hardware'
p1088
S'64-bit ARMv8 machines'
p1089
ss(S'description'
p1090
g31
NS'mckinley'
p1091
tp1092
(dp1093
S'hardware'
p1094
S'Itanium II'
p1095
ss(S'build'
p1096
g89
tp1097
(dp1098
S'image-file'
p1099
S'arch/s390/boot/image'
p1100
ss(S'base'
p1101
g128
g217
tp1102
(dp1103
S'flavours'
p1104
(lp1105
S'486'
p1106
aS'686-pae'
p1107
aS'amd64'
p1108
ass(S'abi'
p1109
tp1110
(dp1111
S'abiname'
p1112
S'1'
p1113
sS'ignore-changes'
p1114
(lp1115
S'ib_update_cm_av'
p1116
aS'DAC1064_global_*'
p1117
aS'g450_mnp2f'
p1118
aS'matrox_*'
p1119
aS'matroxfb_*'
p1120
aS'vsock_core_init'
p1121
aS'nf_ct_extend_register'
p1122
ass(S'description'
p1123
g211
NS'powerpc64'
p1124
tp1125
(dp1126
S'hardware'
p1127
S'64-bit PowerPC'
p1128
ss(S'relations'
p1129
g211
tp1130
(dp1131
S'gcc-4.8'
p1132
S'gcc-4.8 (>= 4.8.2-21)'
p1133
ss(g110
g347
g109
tp1134
(dp1135
g114
I01
sg115
(lp1136
S'powerpcspe'
p1137
ass(g110
g544
g109
tp1138
(dp1139
g114
I01
sg115
(lp1140
S'm68k'
p1141
ass(S'base'
p1142
g120
tp1143
(dp1144
S'kernel-arch'
p1145
S'sparc'
p1146
sg107
(lp1147
g109
ass(g110
g379
g109
tp1148
(dp1149
g114
I01
sg115
(lp1150
S'parisc'
p1151
aS'parisc64-smp'
p1152
ass(S'description'
p1153
g102
NS'alpha-smp'
p1154
tp1155
(dp1156
S'hardware'
p1157
S'Alpha SMP'
p1158
sS'hardware-long'
p1159
S'DEC Alpha SMP systems with extended kernel start address (Wildfire, Titan, Marvel)'
p1160
ss(S'build'
p1161
g544
tp1162
(dp1163
S'image-file'
p1164
S'vmlinux.gz'
p1165
ss(S'description'
p1166
g5
NS'amd64'
p1167
tp1168
(dp1169
S'hardware'
p1170
S'64-bit PCs'
p1171
sS'hardware-long'
p1172
S'PCs with AMD64, Intel 64 or VIA Nano processors'
p1173
ss(g110
g49
g109
tp1174
(dp1175
g114
I01
sg115
(lp1176
S'powerpc'
p1177
aS'powerpc-smp'
p1178
aS'powerpc64'
p1179
ass(S'image'
p1180
g80
NS'4kc-malta'
p1181
tp1182
(dp1183
S'configs'
p1184
(lp1185
S'mips/config.4kc-malta'
p1186
ass(S'build'
p1187
g111
tp1188
(dp1189
S'image-file'
p1190
S'arch/arm/boot/zImage'
p1191
ss(S'description'
p1192
g42
NS'sparc64-smp'
p1193
tp1194
(dp1195
S'hardware'
p1196
S'multiprocessor 64-bit UltraSPARC'
p1197
ss(S'description'
p1198
g102
NS'alpha-generic'
p1199
tp1200
(dp1201
S'hardware'
p1202
S'Alpha'
p1203
sS'hardware-long'
p1204
S'DEC Alpha systems with extended kernel start address (Wildfire, Titan, Marvel)'
p1205
ss(S'base'
p1206
S'ppc64el'
p1207
tp1208
(dp1209
S'kernel-arch'
p1210
S'powerpc'
p1211
sS'featuresets'
p1212
(lp1213
ss(S'build'
p1214
g249
NS's390x'
p1215
tp1216
(dp1217
S'debug-info'
p1218
I01
ss(S'image'
p1219
tp1220
(dp1221
S'initramfs-generators'
p1222
(lp1223
S'initramfs-tools'
p1224
aS'initramfs-fallback'
p1225
asS'type'
p1226
S'plain'
p1227
ss(S'image'
p1228
g211
NS'powerpc64'
p1229
tp1230
(dp1231
S'configs'
p1232
(lp1233
S'kernelarch-powerpc/config-arch-64'
p1234
ass(g110
g120
g109
tp1235
(dp1236
g114
I01
sg115
(lp1237
S'sparc64'
p1238
aS'sparc64-smp'
p1239
ass(S'description'
p1240
g305
NS'r5k-ip32'
p1241
tp1242
(dp1243
S'hardware'
p1244
S'SGI IP32'
p1245
sS'hardware-long'
p1246
S'SGI IP32 systems (O2)'
p1247
ss(S'description'
p1248
g128
NS'686-pae'
p1249
tp1250
(dp1251
S'hardware'
p1252
S'modern PCs'
p1253
sS'parts'
p1254
(lp1255
S'pae'
p1256
asS'hardware-long'
p1257
S'PCs with one or more processors supporting PAE'
p1258
ss(S'description'
p1259
g25
NS'ixp4xx'
p1260
tp1261
(dp1262
S'hardware'
p1263
S'IXP4xx'
p1264
sS'hardware-long'
p1265
S'IXP4xx based systems (Linksys NSLU2, etc)'
p1266
ss(S'image'
p1267
g249
tp1268
(dp1269
S'install-stem'
p1270
S'vmlinuz'
p1271
sS'configs'
p1272
(lp1273
sS'bootloaders'
p1274
(lp1275
S's390-tools'
p1276
ass(S'image'
p1277
g128
NS'486'
p1278
tp1279
(dp1280
S'configs'
p1281
(lp1282
S'kernelarch-x86/config-arch-32'
p1283
aS'i386/config.486'
p1284
ass(g110
g102
g109
tp1285
(dp1286
g114
I01
sg115
(lp1287
S'alpha-generic'
p1288
aS'alpha-smp'
p1289
aS'alpha-legacy'
p1290
ass(S'image'
p1291
g231
tp1292
(dp1293
S'install-stem'
p1294
S'vmlinuz'
p1295
ss(S'image'
p1296
g42
NS'sparc64-smp'
p1297
tp1298
(dp1299
S'configs'
p1300
(lp1301
S'kernelarch-sparc/config-smp'
p1302
ass(S'image'
p1303
g80
NS'loongson-2f'
p1304
tp1305
(dp1306
S'recommends'
p1307
S'libc6-loongson2f'
p1308
ss(S'description'
p1309
g120
NS'sparc64-smp'
p1310
tp1311
(dp1312
S'hardware'
p1313
S'multiprocessor 64-bit UltraSPARC'
p1314
ss(S'build'
p1315
g128
tp1316
(dp1317
S'image-file'
p1318
S'arch/x86/boot/bzImage'
p1319
sstp1320
Rp1321
.