cdebian_linux.config
ConfigCore
p0
(tRp1
(Vabi
p2
tp3
(dp4
Vabiname
p5
V1pexip1
p6
sVignore-changes
p7
(lp8
V__cpuhp_*
p9
aV__udp_gso_segment
p10
aVbpf_analyzer
p11
aVbpf_offload_dev_create
p12
aVbpf_verifier_log_write
p13
aVcxl_*
p14
aVdax_flush
p15
aVieee80211_nullfunc_get
p16
aVinet_add_protocol
p17
aVinet_del_protocol
p18
aViommu_device_*
p19
aVmm_iommu_*
p20
aVmv_mbus_*
p21
aVperf_*
p22
aVregister_cxl_calls
p23
aVregister_key_type
p24
aVunregister_cxl_calls
p25
aV*_hw_breakpoint
p26
aVmodule:drivers/crypto/ccp/*
p27
aVmodule:drivers/hv/*
p28
aVmodule:drivers/gpu/drm/sun4i/*
p29
aVmodule:drivers/iio/**
p30
aVmodule:drivers/misc/cxl/*
p31
aVmodule:drivers/misc/lis3lv02d/*
p32
aVmodule:drivers/mtd/nand/*
p33
aVmodule:drivers/net/ethernet/**
p34
aVmodule:drivers/net/wireless/**
p35
aVmodule:drivers/nvdimm/*
p36
aVmodule:drivers/nvme/**
p37
aVmodule:drivers/power/supply/bq27xxx_battery
p38
aVmodule:drivers/scsi/cxgbi/*
p39
aVmodule:drivers/scsi/libiscs*
p40
aVmodule:drivers/scsi/qla2xxx/qla2xxx
p41
aVmodule:drivers/scsi/ufs/*
p42
aVmodule:drivers/target/**
p43
aVmodule:drivers/usb/chipidea/**
p44
aVmodule:drivers/usb/gadget/**
p45
aVmodule:drivers/usb/host/**
p46
aVmodule:drivers/usb/musb/**
p47
aVmodule:fs/nfs/**
p48
aVmodule:net/ceph/libceph
p49
aVmodule:net/l2tp/**
p50
aVmodule:net/openvswitch/**
p51
aVmodule:net/rxrpc/rxrpc
p52
aVmodule:net/sctp/**
p53
aVmodule:sound/core/seq/**
p54
aVmodule:sound/firewire/snd-firewire-lib
p55
aVmodule:sound/pci/hda/*
p56
aVbtree_*
p57
aVvisitor*
p58
aVcan_rx_register
p59
aVip6_xmit
p60
aVmodule:net/dccp/dccp
p61
aVmodule:net/rds/rds
p62
aVdevfreq_*
p63
aVdevm_devfreq_*
p64
aVupdate_devfreq
p65
aVmodule:drivers/infiniband/**
p66
aVacpi_ec_add_query_handler
p67
aVacpi_ec_remove_query_handler
p68
aVfirst_ec
p69
aVdebugfs_create_automount
p70
aVmodule:drivers/iio/imu/inv_mpu6050/*
p71
aVdrm_crtc_accurate_vblank_count
p72
aVacpi_nfit_desc_init
p73
aVacpi_nfit_init
p74
aVloop_register_transfer
p75
aVxen_xlate_*
p76
aVnf_nat_masquerade_ipv4_register_notifier
p77
aVnf_nat_masquerade_ipv6_register_notifier
p78
aVdfltcc_*
p79
aVmodule:drivers/scsi/hisi_sas/*
p80
aV__gfn_*
p81
aV__kvmhv_*
p82
aV__kvm_*
p83
aV__xive_vm_h_*
p84
aVgfn_*
p85
aVh_ipi_redirect
p86
aVhalt_poll_ns*
p87
aVkvm_*
p88
aVkvmhv_*
p89
aVkvmppc_*
p90
aVmark_page_dirty
p91
aVvcpu_*
p92
aVmodule:arch/powerpc/kvm/*
p93
aVmodule:arch/s390/kvm/*
p94
aVmodule:arch/x86/kvm/*
p95
aVuv_info
p96
aVxhci_init_driver
p97
ass(Vbase
p98
tp99
(dp100
Varches
p101
(lp102
Valpha
p103
aVamd64
p104
aVarm64
p105
aVarm64ilp32
p106
aVarmel
p107
aVarmhf
p108
aVhppa
p109
aVi386
p110
aVia64
p111
aVm68k
p112
aVmips
p113
aVmips64
p114
aVmips64el
p115
aVmips64r6
p116
aVmips64r6el
p117
aVmipsel
p118
aVmipsn32
p119
aVmipsn32el
p120
aVmipsn32r6
p121
aVmipsn32r6el
p122
aVmipsr6
p123
aVmipsr6el
p124
aVpowerpc
p125
aVppc64
p126
aVppc64el
p127
aVriscv64
p128
aVs390
p129
aVs390x
p130
aVsh3
p131
aVsh4
p132
aVsparc
p133
aVsparc64
p134
aVx32
p135
asVcompiler
p136
Vgcc-10
p137
sVfeaturesets
p138
(lp139
Vnone
p140
aVrt
p141
ass(Vbuild
p142
tp143
(dp144
Vdebug-info
p145
I01
sVsigned-code
p146
I00
sVtrusted-certs
p147
Vdebian/certs/debian-uefi-certs.pem
p148
ss(Vbase
p149
NVrt
p150
tp151
(dp152
Venabled
p153
I00
ss(Vdescription
p154
tp155
(dp156
Vpart-long-up
p157
VThis kernel is not suitable for SMP (multi-processor,\u000amulti-core or hyper-threaded) systems.
p158
ss(Vimage
p159
tp160
(dp161
Vinitramfs-generators
p162
(lp163
Vinitramfs-tools
p164
aVinitramfs-fallback
p165
asVbreaks
p166
(lp167
Vfwupdate (<< 12-7)
p168
aVwireless-regdb (<< 2019.06.03-1~)
p169
asVrecommends
p170
(lp171
Vapparmor
p172
ass(Vrelations
p173
tp174
(dp175
Vgcc-10
p176
Vgcc-10 <!stage1 !cross !pkg.linux.nokernel>, gcc-10-@gnu-type-package@ <!stage1 cross !pkg.linux.nokernel>
p177
sVinitramfs-fallback
p178
Vlinux-initramfs-tool
p179
sVinitramfs-tools
p180
Vinitramfs-tools (>= 0.120+deb8u2)
p181
ss(Vbase
p182
Valpha
p183
tp184
(dp185
Vdefault-flavour
p186
Valpha-smp
p187
sVkernel-arch
p188
Valpha
p189
sVfeaturesets
p190
(lp191
Vnone
p192
ass(Vbuild
p193
g183
tp194
(dp195
Vimage-file
p196
Varch/alpha/boot/vmlinux.gz
p197
ss(Vimage
p198
g183
tp199
(dp200
Vsuggests
p201
(lp202
Vaboot
p203
aVfdutils
p204
asVinstall-stem
p205
Vvmlinuz
p206
ss(Vdescription
p207
g183
NValpha-generic
p208
tp209
(dp210
Vhardware
p211
VAlpha
p212
sVhardware-long
p213
VDEC Alpha systems with extended kernel start address (Wildfire, Titan, Marvel)
p214
ss(Vdescription
p215
g183
NValpha-smp
p216
tp217
(dp218
Vhardware
p219
VAlpha SMP
p220
sVhardware-long
p221
VDEC Alpha SMP systems with extended kernel start address (Wildfire, Titan, Marvel)
p222
ss(Vbase
p223
g183
g192
tp224
(dp225
Vflavours
p226
(lp227
Valpha-generic
p228
aValpha-smp
p229
asVimplicit-flavour
p230
I01
ss(Vbase
p231
Vamd64
p232
tp233
(dp234
Vfeaturesets
p235
(lp236
Vnone
p237
asVkernel-arch
p238
Vx86
p239
ss(Vbuild
p240
g232
tp241
(dp242
Vimage-file
p243
Varch/x86/boot/bzImage
p244
sVsigned-code
p245
I00
sVvdso
p246
I01
ss(Vimage
p247
g232
tp248
(dp249
Vbootloaders
p250
(lp251
Vgrub-pc
p252
aVgrub-efi-amd64
p253
aVextlinux
p254
asVinstall-stem
p255
Vvmlinuz
p256
sVbreaks
p257
(lp258
Vxserver-xorg-input-vmmouse (<< 1:13.0.99)
p259
ass(Vrelations
p260
g232
tp261
(dp262
Vheaders%gcc-10
p263
Vlinux-compiler-gcc-10-x86
p264
ss(Vdescription
p265
g232
NVamd64
p266
tp267
(dp268
Vhardware
p269
V64-bit PCs
p270
sVhardware-long
p271
VPCs with AMD64, Intel 64 or VIA Nano processors
p272
ss(Vbase
p273
g232
Vnone
p274
tp275
(dp276
Vflavours
p277
(lp278
Vamd64
p279
asVdefault-flavour
p280
Vamd64
p281
ss(Vimage
p282
g232
g274
Vamd64
p283
tp284
(dp285
Vconfigs
p286
(lp287
Vconfig.cloud
p288
aVamd64/config.cloud-amd64
p289
aVamd64/config.pexip-amd64
p290
ass(Vbase
p291
Varm64
p292
tp293
(dp294
Vcross-compile-compat
p295
Varm-linux-gnueabihf-
p296
sVkernel-arch
p297
Varm64
p298
sVfeaturesets
p299
(lp300
Vnone
p301
aVrt
p302
ass(Vbuild
p303
g292
tp304
(dp305
Vimage-file
p306
Varch/arm64/boot/Image
p307
sVsigned-code
p308
I00
sVvdso
p309
I01
ss(Vimage
p310
g292
tp311
(dp312
Vinstall-stem
p313
Vvmlinuz
p314
sVbreaks
p315
(lp316
Vlibmozjs185-1.0
p317
aVlibmozjs-24-0 (<< 24.2.0-5.1~)
p318
ass(Vdescription
p319
g292
NVarm64
p320
tp321
(dp322
Vhardware
p323
V64-bit ARMv8 machines
p324
ss(Vdescription
p325
g292
NVcloud-arm64
p326
tp327
(dp328
Vhardware
p329
Varm64 cloud
p330
sVhardware-long
p331
Vcloud platforms supporting arm64 virtual machines
p332
ss(Vimage
p333
g292
NVarm64
p334
tp335
(dp336
s(Vrelations
p337
g292
tp338
(dp339
Vgcc-10
p340
Vgcc-10 <!stage1 !cross !pkg.linux.nokernel>, gcc-10-aarch64-linux-gnu <!stage1 cross !pkg.linux.nokernel>, gcc-arm-linux-gnueabihf <!stage1 !pkg.linux.nokernel>
p341
sVheaders%gcc-10
p342
Vgcc-10
p343
ss(Vbase
p344
g292
Vnone
p345
tp346
(dp347
Vflavours
p348
(lp349
Varm64
p350
aVcloud-arm64
p351
asVdefault-flavour
p352
Varm64
p353
ss(Vimage
p354
g292
g345
Vcloud-arm64
p355
tp356
(dp357
Vconfigs
p358
(lp359
Vconfig.cloud
p360
aVarm64/config.cloud-arm64
p361
ass(Vbase
p362
g292
Vrt
p363
tp364
(dp365
Vflavours
p366
(lp367
Varm64
p368
ass(Vbase
p369
Varm64ilp32
p370
tp371
(dp372
Vkernel-arch
p373
Varm64
p374
sVfeaturesets
p375
(lp376
ss(Vbase
p377
Varmel
p378
tp379
(dp380
Vkernel-arch
p381
Varm
p382
sg190
(lp383
g192
ass(Vbuild
p384
g378
tp385
(dp386
Vimage-file
p387
Varch/arm/boot/zImage
p388
sVuncompressed-image-file
p389
Varch/arm/boot/Image
p390
ss(Vimage
p391
g378
tp392
(dp393
Vinstall-stem
p394
Vvmlinuz
p395
ss(Vrelations
p396
g378
tp397
(dp398
Vheaders%gcc-11
p399
Vlinux-compiler-gcc-11-arm
p400
ss(Vdescription
p401
g378
NVmarvell
p402
tp403
(dp404
Vhardware
p405
VMarvell Kirkwood/Orion
p406
sVhardware-long
p407
VMarvell Kirkwood and Orion based systems (https://wiki.debian.org/ArmEabiPort#Supported_hardware)
p408
ss(Vdescription
p409
g378
NVrpi
p410
tp411
(dp412
Vhardware
p413
VRaspberry Pi Zero, Zero W and 1
p414
sVhardware-long
p415
VRaspberry Pi Zero, Zero W and 1 based systems
p416
ss(Vimage
p417
g378
NVmarvell
p418
tp419
(dp420
Vrecommends
p421
(lp422
Vu-boot-tools
p423
asVcheck-size
p424
I2729712
sVcheck-size-with-dtb
p425
I01
sVbreaks
p426
(lp427
Vflash-kernel (<< 3.57~)
p428
ass(g223
g378
g192
tp429
(dp430
g226
(lp431
Vmarvell
p432
aVrpi
p433
asg230
I01
ss(Vbase
p434
Varmhf
p435
tp436
(dp437
Vfeaturesets
p438
(lp439
Vnone
p440
aVrt
p441
asVkernel-arch
p442
Varm
p443
ss(Vbuild
p444
g435
tp445
(dp446
Vimage-file
p447
Varch/arm/boot/zImage
p448
sVvdso
p449
I01
ss(Vimage
p450
g435
tp451
(dp452
Vinstall-stem
p453
Vvmlinuz
p454
ss(Vrelations
p455
g435
tp456
(dp457
Vheaders%gcc-11
p458
Vlinux-compiler-gcc-11-arm
p459
ss(Vdescription
p460
g435
NVarmmp
p461
tp462
(dp463
Vhardware
p464
VARMv7 multiplatform compatible SoCs
p465
sVhardware-long
p466
VARMv7 multiplatform kernel. See\u000ahttps://wiki.debian.org/DebianKernel/ARMMP for details of supported\u000aplatforms
p467
ss(Vdescription
p468
g435
NVarmmp-lpae
p469
tp470
(dp471
Vhardware
p472
VARMv7 multiplatform compatible SoCs supporting LPAE
p473
sVhardware-long
p474
VARMv7 multiplatform kernel supporting LPAE. See\u000ahttps://wiki.debian.org/DebianKernel/ARMMP for details of supported\u000aplatforms.
p475
ss(Vbase
p476
g435
Vnone
p477
tp478
(dp479
Vflavours
p480
(lp481
Varmmp
p482
aVarmmp-lpae
p483
asVdefault-flavour
p484
Varmmp
p485
ss(Vbase
p486
g435
Vrt
p487
tp488
(dp489
Vflavours
p490
(lp491
Varmmp
p492
ass(Vbase
p493
Vhppa
p494
tp495
(dp496
Vdefault-flavour
p497
Vparisc
p498
sVkernel-arch
p499
Vparisc
p500
sg190
(lp501
g192
ass(Vbuild
p502
g494
tp503
(dp504
Vimage-file
p505
Varch/parisc/boot/bzImage
p506
sVdebug-info
p507
I00
ss(Vimage
p508
g494
tp509
(dp510
Vsuggests
p511
(lp512
Vpalo
p513
asVinstall-stem
p514
Vvmlinuz
p515
ss(Vdescription
p516
g494
NVparisc
p517
tp518
(dp519
Vhardware
p520
V32-bit PA-RISC
p521
sVhardware-long
p522
VHP PA-RISC 32-bit systems with max 4 GB RAM
p523
ss(Vbase
p524
g494
NVparisc64
p525
tp526
(dp527
Vcflags
p528
V-fno-cse-follow-jumps
p529
sVoverride-host-type
p530
Vhppa64-linux-gnu
p531
ss(Vdescription
p532
g494
NVparisc64
p533
tp534
(dp535
Vhardware
p536
V64-bit PA-RISC
p537
sVhardware-long
p538
VHP PA-RISC 64-bit systems with support for more than 4 GB RAM
p539
ss(Vrelations
p540
g494
tp541
(dp542
Vgcc-11
p543
Vgcc-11 <!stage1 !cross !pkg.linux.nokernel>, gcc-11-hppa-linux-gnu <!stage1 cross !pkg.linux.nokernel>, binutils-hppa64-linux-gnu <!stage1 !pkg.linux.nokernel>, gcc-11-hppa64-linux-gnu <!stage1 !pkg.linux.nokernel>
p544
ss(g223
g494
g192
tp545
(dp546
g226
(lp547
Vparisc
p548
aVparisc64
p549
asg230
I01
ss(Vbase
p550
Vi386
p551
tp552
(dp553
Vfeaturesets
p554
(lp555
Vnone
p556
aVrt
p557
asVkernel-arch
p558
Vx86
p559
ss(Vbuild
p560
g551
tp561
(dp562
Vimage-file
p563
Varch/x86/boot/bzImage
p564
sVsigned-code
p565
I01
sVvdso
p566
I01
ss(Vdescription
p567
g551
tp568
(dp569
Vpart-long-pae
p570
VThis kernel requires PAE (Physical Address Extension).\u000aThis feature is supported by the Intel Pentium Pro/II/III/4/4M/D, Xeon,\u000aCore and Atom; AMD Geode NX, Athlon (K7), Duron, Opteron, Sempron,\u000aTurion or Phenom; Transmeta Efficeon; VIA C7; and some other processors.
p571
ss(Vimage
p572
g551
tp573
(dp574
Vbootloaders
p575
(lp576
Vgrub-pc
p577
aVgrub-efi-ia32
p578
aVextlinux
p579
asVinstall-stem
p580
Vvmlinuz
p581
sVbreaks
p582
(lp583
Vxserver-xorg-input-vmmouse (<< 1:13.0.99)
p584
ass(Vrelations
p585
g551
tp586
(dp587
Vheaders%gcc-10
p588
Vlinux-compiler-gcc-10-x86
p589
ss(Vdescription
p590
g551
NV686
p591
tp592
(dp593
Vhardware
p594
Volder PCs
p595
sVhardware-long
p596
VPCs with one or more processors not supporting PAE
p597
ss(Vdescription
p598
g551
NV686-pae
p599
tp600
(dp601
Vhardware
p602
Vmodern PCs
p603
sVhardware-long
p604
VPCs with one or more processors supporting PAE
p605
sVparts
p606
(lp607
Vpae
p608
ass(Vbase
p609
g551
Vnone
p610
tp611
(dp612
Vflavours
p613
(lp614
V686
p615
aV686-pae
p616
asVdefault-flavour
p617
V686-pae
p618
ss(Vbase
p619
g551
Vrt
p620
tp621
(dp622
Vflavours
p623
(lp624
V686-pae
p625
ass(Vbase
p626
Via64
p627
tp628
(dp629
Vdefault-flavour
p630
Vitanium
p631
sVkernel-arch
p632
Via64
p633
sg190
(lp634
g192
ass(Vbuild
p635
g627
tp636
(dp637
Vimage-file
p638
Vvmlinux.gz
p639
ss(Vimage
p640
g627
tp641
(dp642
Vbootloaders
p643
(lp644
Vgrub-efi-ia64
p645
asVinstall-stem
p646
Vvmlinuz
p647
ss(Vdescription
p648
g627
NVitanium
p649
tp650
(dp651
Vhardware
p652
VItanium (Merced)
p653
sVhardware-long
p654
Vsystems with original Itanium (Merced) processors
p655
ss(Vdescription
p656
g627
NVmckinley
p657
tp658
(dp659
Vhardware
p660
VItanium 2+
p661
sVhardware-long
p662
Vsystems with Itanium 2 or 9300/9500/9700-series processors
p663
ss(g223
g627
g192
tp664
(dp665
g226
(lp666
Vitanium
p667
aVmckinley
p668
asg230
I01
ss(Vbase
p669
Vm68k
p670
tp671
(dp672
Vcflags
p673
V-ffreestanding
p674
sVdefault-flavour
p675
Vm68k
p676
sVkernel-arch
p677
Vm68k
p678
sg190
(lp679
g192
ass(Vbuild
p680
g670
tp681
(dp682
Vimage-file
p683
Vvmlinux
p684
ss(Vimage
p685
g670
tp686
(dp687
Vsuggests
p688
(lp689
Vvmelilo
p690
aVfdutils
p691
asVinstall-stem
p692
Vvmlinux
p693
ss(Vdescription
p694
g670
NVm68k
p695
tp696
(dp697
Vhardware
p698
VMotorola MC68020+ family
p699
ss(g223
g670
g192
tp700
(dp701
g226
(lp702
Vm68k
p703
asg230
I01
ss(Vbase
p704
Vmips
p705
tp706
(dp707
Vkernel-arch
p708
Vmips
p709
sg190
(lp710
g192
ass(Vbuild
p711
g705
tp712
(dp713
Vimage-file
p714
Vvmlinuz
p715
ss(Vimage
p716
g705
tp717
(dp718
Vinstall-stem
p719
Vvmlinuz
p720
ss(Vdescription
p721
g705
NV4kc-malta
p722
tp723
(dp724
Vhardware
p725
VMIPS Malta
p726
sVhardware-long
p727
VMIPS Malta boards
p728
ss(Vimage
p729
g705
NV4kc-malta
p730
tp731
(dp732
Vconfigs
p733
(lp734
Vkernelarch-mips/config.malta
p735
aVkernelarch-mips/config.mips32r2
p736
ass(Vdescription
p737
g705
NV5kc-malta
p738
tp739
(dp740
Vhardware
p741
VMIPS Malta (64-bit)
p742
sVhardware-long
p743
VMIPS Malta boards (64-bit)
p744
ss(Vimage
p745
g705
NV5kc-malta
p746
tp747
(dp748
Vconfigs
p749
(lp750
Vkernelarch-mips/config.malta
p751
aVkernelarch-mips/config.mips64r2
p752
ass(Vdescription
p753
g705
NVocteon
p754
tp755
(dp756
Vhardware
p757
VOcteon
p758
sVhardware-long
p759
VCavium Networks Octeon
p760
ss(Vbuild
p761
g705
NVocteon
p762
tp763
(dp764
Vimage-file
p765
Vvmlinux
p766
ss(Vimage
p767
g705
NVocteon
p768
tp769
(dp770
Vinstall-stem
p771
Vvmlinux
p772
sVconfigs
p773
(lp774
Vkernelarch-mips/config.octeon
p775
ass(g223
g705
g192
tp776
(dp777
g226
(lp778
V4kc-malta
p779
aV5kc-malta
p780
aVocteon
p781
asg230
I01
ss(Vbase
p782
Vmips64
p783
tp784
(dp785
Vkernel-arch
p786
Vmips
p787
sg190
(lp788
g192
ass(Vbuild
p789
g783
tp790
(dp791
Vimage-file
p792
Vvmlinuz
p793
ss(Vimage
p794
g783
tp795
(dp796
Vinstall-stem
p797
Vvmlinuz
p798
ss(Vdescription
p799
g783
NV5kc-malta
p800
tp801
(dp802
Vhardware
p803
VMIPS Malta
p804
sVhardware-long
p805
VMIPS Malta boards
p806
ss(Vimage
p807
g783
NV5kc-malta
p808
tp809
(dp810
Vconfigs
p811
(lp812
Vkernelarch-mips/config.malta
p813
aVkernelarch-mips/config.mips64r2
p814
ass(Vdescription
p815
g783
NVocteon
p816
tp817
(dp818
Vhardware
p819
VOcteon
p820
sVhardware-long
p821
VCavium Networks Octeon
p822
ss(Vbuild
p823
g783
NVocteon
p824
tp825
(dp826
Vimage-file
p827
Vvmlinux
p828
ss(Vimage
p829
g783
NVocteon
p830
tp831
(dp832
Vinstall-stem
p833
Vvmlinux
p834
sVconfigs
p835
(lp836
Vkernelarch-mips/config.octeon
p837
ass(g223
g783
g192
tp838
(dp839
g226
(lp840
V5kc-malta
p841
aVocteon
p842
asg230
I01
ss(Vbase
p843
Vmips64el
p844
tp845
(dp846
Vkernel-arch
p847
Vmips
p848
sg190
(lp849
g192
ass(Vbuild
p850
g844
tp851
(dp852
Vimage-file
p853
Vvmlinuz
p854
ss(Vimage
p855
g844
tp856
(dp857
Vinstall-stem
p858
Vvmlinuz
p859
ss(Vdescription
p860
g844
NV5kc-malta
p861
tp862
(dp863
Vhardware
p864
VMIPS Malta
p865
sVhardware-long
p866
VMIPS Malta boards
p867
ss(Vimage
p868
g844
NV5kc-malta
p869
tp870
(dp871
Vconfigs
p872
(lp873
Vkernelarch-mips/config.malta
p874
aVkernelarch-mips/config.mips64r2
p875
ass(Vdescription
p876
g844
NVloongson-3
p877
tp878
(dp879
Vhardware
p880
VLoongson 3A/3B
p881
sVhardware-long
p882
VLoongson 3A or 3B based systems (e.g. from Loongson or Lemote)
p883
ss(Vimage
p884
g844
NVloongson-3
p885
tp886
(dp887
Vrecommends
p888
(lp889
Vpmon-update
p890
asVconfigs
p891
(lp892
Vkernelarch-mips/config.loongson-3
p893
ass(Vdescription
p894
g844
NVocteon
p895
tp896
(dp897
Vhardware
p898
VOcteon
p899
sVhardware-long
p900
VCavium Networks Octeon
p901
ss(Vbuild
p902
g844
NVocteon
p903
tp904
(dp905
Vimage-file
p906
Vvmlinux
p907
ss(Vimage
p908
g844
NVocteon
p909
tp910
(dp911
Vinstall-stem
p912
Vvmlinux
p913
sVconfigs
p914
(lp915
Vkernelarch-mips/config.octeon
p916
ass(g223
g844
g192
tp917
(dp918
g226
(lp919
V5kc-malta
p920
aVloongson-3
p921
aVocteon
p922
asg230
I01
ss(Vbase
p923
Vmips64r6
p924
tp925
(dp926
Vdefault-flavour
p927
Vmips64r6
p928
sVkernel-arch
p929
Vmips
p930
sg190
(lp931
g192
ass(Vbuild
p932
g924
tp933
(dp934
Vimage-file
p935
Vvmlinux
p936
ss(Vimage
p937
g924
tp938
(dp939
Vinstall-stem
p940
Vvmlinux
p941
ss(Vdescription
p942
g924
NVmips64r6
p943
tp944
(dp945
Vhardware
p946
VMIPS R6 (64 bit, big endian)
p947
sVhardware-long
p948
VMIPS R6 (64 bit, big endian)
p949
ss(Vimage
p950
g924
NVmips64r6
p951
tp952
(dp953
Vconfigs
p954
(lp955
Vkernelarch-mips/config.boston
p956
aVkernelarch-mips/config.mips64r6
p957
ass(g223
g924
g192
tp958
(dp959
g226
(lp960
Vmips64r6
p961
asg230
I01
ss(Vbase
p962
Vmips64r6el
p963
tp964
(dp965
Vdefault-flavour
p966
Vmips64r6el
p967
sVkernel-arch
p968
Vmips
p969
sg190
(lp970
g192
ass(Vbuild
p971
g963
tp972
(dp973
Vimage-file
p974
Vvmlinux
p975
ss(Vimage
p976
g963
tp977
(dp978
Vinstall-stem
p979
Vvmlinux
p980
ss(Vdescription
p981
g963
NVmips64r6el
p982
tp983
(dp984
Vhardware
p985
VMIPS R6 (64 bit, little endian)
p986
sVhardware-long
p987
VMIPS R6 (64 bit, little endian)
p988
ss(Vimage
p989
g963
NVmips64r6el
p990
tp991
(dp992
Vconfigs
p993
(lp994
Vkernelarch-mips/config.boston
p995
aVkernelarch-mips/config.mips64r6
p996
ass(g223
g963
g192
tp997
(dp998
g226
(lp999
Vmips64r6el
p1000
asg230
I01
ss(Vbase
p1001
Vmipsel
p1002
tp1003
(dp1004
Vkernel-arch
p1005
Vmips
p1006
sg190
(lp1007
g192
ass(Vbuild
p1008
g1002
tp1009
(dp1010
Vimage-file
p1011
Vvmlinuz
p1012
ss(Vimage
p1013
g1002
tp1014
(dp1015
Vinstall-stem
p1016
Vvmlinuz
p1017
ss(Vdescription
p1018
g1002
NV4kc-malta
p1019
tp1020
(dp1021
Vhardware
p1022
VMIPS Malta
p1023
sVhardware-long
p1024
VMIPS Malta boards
p1025
ss(Vimage
p1026
g1002
NV4kc-malta
p1027
tp1028
(dp1029
Vconfigs
p1030
(lp1031
Vkernelarch-mips/config.malta
p1032
aVkernelarch-mips/config.mips32r2
p1033
ass(Vdescription
p1034
g1002
NV5kc-malta
p1035
tp1036
(dp1037
Vhardware
p1038
VMIPS Malta (64-bit)
p1039
sVhardware-long
p1040
VMIPS Malta boards (64-bit)
p1041
ss(Vimage
p1042
g1002
NV5kc-malta
p1043
tp1044
(dp1045
Vconfigs
p1046
(lp1047
Vkernelarch-mips/config.malta
p1048
aVkernelarch-mips/config.mips64r2
p1049
ass(Vdescription
p1050
g1002
NVloongson-3
p1051
tp1052
(dp1053
Vhardware
p1054
VLoongson 3A/3B
p1055
sVhardware-long
p1056
VLoongson 3A or 3B based systems (e.g. from Loongson or Lemote)
p1057
ss(Vimage
p1058
g1002
NVloongson-3
p1059
tp1060
(dp1061
Vrecommends
p1062
(lp1063
Vpmon-update
p1064
asVconfigs
p1065
(lp1066
Vkernelarch-mips/config.loongson-3
p1067
ass(Vdescription
p1068
g1002
NVocteon
p1069
tp1070
(dp1071
Vhardware
p1072
VOcteon
p1073
sVhardware-long
p1074
VCavium Networks Octeon
p1075
ss(Vbuild
p1076
g1002
NVocteon
p1077
tp1078
(dp1079
Vimage-file
p1080
Vvmlinux
p1081
ss(Vimage
p1082
g1002
NVocteon
p1083
tp1084
(dp1085
Vinstall-stem
p1086
Vvmlinux
p1087
sVconfigs
p1088
(lp1089
Vkernelarch-mips/config.octeon
p1090
ass(g223
g1002
g192
tp1091
(dp1092
g226
(lp1093
V4kc-malta
p1094
aV5kc-malta
p1095
aVloongson-3
p1096
aVocteon
p1097
asg230
I01
ss(Vbase
p1098
Vmipsn32
p1099
tp1100
(dp1101
Vkernel-arch
p1102
Vmips
p1103
sVfeaturesets
p1104
(lp1105
ss(Vbase
p1106
Vmipsn32el
p1107
tp1108
(dp1109
Vkernel-arch
p1110
Vmips
p1111
sVfeaturesets
p1112
(lp1113
ss(Vbase
p1114
Vmipsn32r6
p1115
tp1116
(dp1117
Vkernel-arch
p1118
Vmips
p1119
sVfeaturesets
p1120
(lp1121
ss(Vbase
p1122
Vmipsn32r6el
p1123
tp1124
(dp1125
Vkernel-arch
p1126
Vmips
p1127
sVfeaturesets
p1128
(lp1129
ss(Vbase
p1130
Vmipsr6
p1131
tp1132
(dp1133
Vdefault-flavour
p1134
Vmips32r6
p1135
sVkernel-arch
p1136
Vmips
p1137
sg190
(lp1138
g192
ass(Vbuild
p1139
g1131
tp1140
(dp1141
Vimage-file
p1142
Vvmlinux
p1143
ss(Vimage
p1144
g1131
tp1145
(dp1146
Vinstall-stem
p1147
Vvmlinux
p1148
ss(Vdescription
p1149
g1131
NVmips32r6
p1150
tp1151
(dp1152
Vhardware
p1153
VMIPS R6 (32 bit, big endian)
p1154
sVhardware-long
p1155
VMIPS R6 (32 bit, big endian)
p1156
ss(Vimage
p1157
g1131
NVmips32r6
p1158
tp1159
(dp1160
Vconfigs
p1161
(lp1162
Vkernelarch-mips/config.boston
p1163
aVkernelarch-mips/config.mips32r6
p1164
ass(Vdescription
p1165
g1131
NVmips64r6
p1166
tp1167
(dp1168
Vhardware
p1169
VMIPS R6 (64 bit, big endian)
p1170
sVhardware-long
p1171
VMIPS R6 (64 bit, big endian)
p1172
ss(Vimage
p1173
g1131
NVmips64r6
p1174
tp1175
(dp1176
Vconfigs
p1177
(lp1178
Vkernelarch-mips/config.boston
p1179
aVkernelarch-mips/config.mips64r6
p1180
ass(g223
g1131
g192
tp1181
(dp1182
g226
(lp1183
Vmips32r6
p1184
aVmips64r6
p1185
asg230
I01
ss(Vbase
p1186
Vmipsr6el
p1187
tp1188
(dp1189
Vdefault-flavour
p1190
Vmips32r6el
p1191
sVkernel-arch
p1192
Vmips
p1193
sg190
(lp1194
g192
ass(Vbuild
p1195
g1187
tp1196
(dp1197
Vimage-file
p1198
Vvmlinux
p1199
ss(Vimage
p1200
g1187
tp1201
(dp1202
Vinstall-stem
p1203
Vvmlinux
p1204
ss(Vdescription
p1205
g1187
NVmips32r6el
p1206
tp1207
(dp1208
Vhardware
p1209
VMIPS R6 (32 bit, little endian)
p1210
sVhardware-long
p1211
VMIPS R6 (32 bit, little endian)
p1212
ss(Vimage
p1213
g1187
NVmips32r6el
p1214
tp1215
(dp1216
Vconfigs
p1217
(lp1218
Vkernelarch-mips/config.boston
p1219
aVkernelarch-mips/config.mips32r6
p1220
ass(Vdescription
p1221
g1187
NVmips64r6el
p1222
tp1223
(dp1224
Vhardware
p1225
VMIPS R6 (64 bit, little endian)
p1226
sVhardware-long
p1227
VMIPS R6 (64 bit, little endian)
p1228
ss(Vimage
p1229
g1187
NVmips64r6el
p1230
tp1231
(dp1232
Vconfigs
p1233
(lp1234
Vkernelarch-mips/config.boston
p1235
aVkernelarch-mips/config.mips64r6
p1236
ass(g223
g1187
g192
tp1237
(dp1238
g226
(lp1239
Vmips32r6el
p1240
aVmips64r6el
p1241
asg230
I01
ss(Vbase
p1242
Vpowerpc
p1243
tp1244
(dp1245
Vkernel-arch
p1246
Vpowerpc
p1247
sg190
(lp1248
g192
ass(Vbuild
p1249
g1243
tp1250
(dp1251
Vimage-file
p1252
Vvmlinux
p1253
ss(Vimage
p1254
g1243
tp1255
(dp1256
Vconfigs
p1257
(lp1258
sVbootloaders
p1259
(lp1260
Vgrub-ieee1275
p1261
asVsuggests
p1262
(lp1263
Vmkvmlinuz
p1264
asVinstall-stem
p1265
Vvmlinux
p1266
ss(Vdescription
p1267
g1243
NVpowerpc
p1268
tp1269
(dp1270
Vhardware
p1271
Vuniprocessor 32-bit PowerPC
p1272
ss(Vdescription
p1273
g1243
NVpowerpc-smp
p1274
tp1275
(dp1276
Vhardware
p1277
Vmultiprocessor 32-bit PowerPC
p1278
ss(Vimage
p1279
g1243
NVpowerpc-smp
p1280
tp1281
(dp1282
Vconfigs
p1283
(lp1284
Vpowerpc/config.powerpc
p1285
aVpowerpc/config.powerpc-smp
p1286
ass(Vdescription
p1287
g1243
NVpowerpc64
p1288
tp1289
(dp1290
Vhardware
p1291
V64-bit PowerPC
p1292
ss(Vimage
p1293
g1243
NVpowerpc64
p1294
tp1295
(dp1296
Vconfigs
p1297
(lp1298
Vkernelarch-powerpc/config-arch-64
p1299
aVkernelarch-powerpc/config-arch-64-be
p1300
ass(g223
g1243
g192
tp1301
(dp1302
g226
(lp1303
Vpowerpc
p1304
aVpowerpc-smp
p1305
aVpowerpc64
p1306
asg230
I01
ss(Vbase
p1307
Vppc64
p1308
tp1309
(dp1310
Vdefault-flavour
p1311
Vpowerpc64
p1312
sVkernel-arch
p1313
Vpowerpc
p1314
sg190
(lp1315
g192
ass(Vbuild
p1316
g1308
tp1317
(dp1318
Vimage-file
p1319
Vvmlinux
p1320
ss(Vimage
p1321
g1308
tp1322
(dp1323
Vconfigs
p1324
(lp1325
sVbootloaders
p1326
(lp1327
Vgrub-ieee1275
p1328
asVsuggests
p1329
(lp1330
Vmkvmlinuz
p1331
asVinstall-stem
p1332
Vvmlinux
p1333
ss(Vdescription
p1334
g1308
NVpowerpc64
p1335
tp1336
(dp1337
Vhardware
p1338
V64-bit PowerPC
p1339
ss(Vimage
p1340
g1308
NVpowerpc64
p1341
tp1342
(dp1343
Vconfigs
p1344
(lp1345
Vkernelarch-powerpc/config-arch-64
p1346
aVkernelarch-powerpc/config-arch-64-be
p1347
ass(g223
g1308
g192
tp1348
(dp1349
g226
(lp1350
Vpowerpc64
p1351
asg230
I01
ss(Vbase
p1352
Vppc64el
p1353
tp1354
(dp1355
Vdefault-flavour
p1356
Vpowerpc64le
p1357
sVkernel-arch
p1358
Vpowerpc
p1359
sg190
(lp1360
g192
ass(Vbuild
p1361
g1353
tp1362
(dp1363
Vimage-file
p1364
Vvmlinux
p1365
ss(Vimage
p1366
g1353
tp1367
(dp1368
Vconfigs
p1369
(lp1370
sVbootloaders
p1371
(lp1372
Vgrub-ieee1275
p1373
asVsuggests
p1374
(lp1375
Vmkvmlinuz
p1376
asVinstall-stem
p1377
Vvmlinux
p1378
ss(Vdescription
p1379
g1353
NVpowerpc64le
p1380
tp1381
(dp1382
Vhardware
p1383
VLittle-endian 64-bit PowerPC
p1384
ss(Vimage
p1385
g1353
NVpowerpc64le
p1386
tp1387
(dp1388
Vconfigs
p1389
(lp1390
Vkernelarch-powerpc/config-arch-64
p1391
aVkernelarch-powerpc/config-arch-64-le
p1392
ass(g223
g1353
g192
tp1393
(dp1394
g226
(lp1395
Vpowerpc64le
p1396
asg230
I01
ss(Vbase
p1397
Vriscv64
p1398
tp1399
(dp1400
Vkernel-arch
p1401
Vriscv
p1402
sVfeaturesets
p1403
(lp1404
Vnone
p1405
ass(Vbuild
p1406
g1398
tp1407
(dp1408
Vimage-file
p1409
Varch/riscv/boot/Image
p1410
sVvdso
p1411
I01
ss(Vimage
p1412
g1398
tp1413
(dp1414
Vinstall-stem
p1415
Vvmlinux
p1416
ss(Vdescription
p1417
g1398
NVriscv64
p1418
tp1419
(dp1420
Vhardware
p1421
V64-bit RISC-V platforms
p1422
sVhardware-long
p1423
V64-bit RISC-V platforms
p1424
ss(Vbase
p1425
g1398
Vnone
p1426
tp1427
(dp1428
Vflavours
p1429
(lp1430
Vriscv64
p1431
asVdefault-flavour
p1432
Vriscv64
p1433
ss(Vbase
p1434
Vs390
p1435
tp1436
(dp1437
Vkernel-arch
p1438
Vs390
p1439
sVfeaturesets
p1440
(lp1441
ss(Vbase
p1442
Vs390x
p1443
tp1444
(dp1445
Vdefault-flavour
p1446
Vs390x
p1447
sVkernel-arch
p1448
Vs390
p1449
sg190
(lp1450
g192
ass(Vbuild
p1451
g1443
tp1452
(dp1453
Vimage-file
p1454
Varch/s390/boot/bzImage
p1455
sVvdso
p1456
I01
ss(Vimage
p1457
g1443
tp1458
(dp1459
Vbootloaders
p1460
(lp1461
Vs390-tools
p1462
asVinstall-stem
p1463
Vvmlinuz
p1464
ss(Vrelations
p1465
g1443
tp1466
(dp1467
Vheaders%gcc-11
p1468
Vlinux-compiler-gcc-11-s390
p1469
ss(Vdescription
p1470
g1443
NVs390x
p1471
tp1472
(dp1473
Vhardware
p1474
VIBM zSeries
p1475
ss(g223
g1443
g192
tp1476
(dp1477
g226
(lp1478
Vs390x
p1479
asg230
I01
ss(Vbase
p1480
Vsh3
p1481
tp1482
(dp1483
Vkernel-arch
p1484
Vsh
p1485
sVfeaturesets
p1486
(lp1487
ss(Vbase
p1488
Vsh4
p1489
tp1490
(dp1491
Vkernel-arch
p1492
Vsh
p1493
sg190
(lp1494
g192
ass(Vbuild
p1495
g1489
tp1496
(dp1497
Vimage-file
p1498
Varch/sh/boot/zImage
p1499
ss(Vimage
p1500
g1489
tp1501
(dp1502
Vinstall-stem
p1503
Vvmlinuz
p1504
ss(Vdescription
p1505
g1489
NVsh7751r
p1506
tp1507
(dp1508
Vhardware
p1509
Vsh7751r
p1510
sVhardware-long
p1511
VRenesas SH7751R R2D plus board
p1512
ss(Vdescription
p1513
g1489
NVsh7785lcr
p1514
tp1515
(dp1516
Vhardware
p1517
Vsh7785lcr
p1518
sVhardware-long
p1519
VRenesas SH7785 reference board
p1520
ss(Vimage
p1521
g1489
NVsh7785lcr
p1522
tp1523
(dp1524
Vrecommends
p1525
(lp1526
Vu-boot-tools
p1527
asVcheck-size
p1528
I4194304
ss(g223
g1489
g192
tp1529
(dp1530
g226
(lp1531
Vsh7751r
p1532
aVsh7785lcr
p1533
asg230
I01
ss(Vbase
p1534
Vsparc
p1535
tp1536
(dp1537
Vkernel-arch
p1538
Vsparc
p1539
sVfeaturesets
p1540
(lp1541
ss(Vbase
p1542
Vsparc64
p1543
tp1544
(dp1545
Vdefault-flavour
p1546
Vsparc64-smp
p1547
sVkernel-arch
p1548
Vsparc
p1549
sg190
(lp1550
g192
ass(Vbuild
p1551
g1543
tp1552
(dp1553
Vimage-file
p1554
Vvmlinux
p1555
ss(Vimage
p1556
g1543
tp1557
(dp1558
Vconfigs
p1559
(lp1560
sVbootloaders
p1561
(lp1562
Vgrub-ieee1275
p1563
asVsuggests
p1564
(lp1565
Vfdutils
p1566
asVinstall-stem
p1567
Vvmlinux
p1568
ss(Vdescription
p1569
g1543
NVsparc64
p1570
tp1571
(dp1572
Vhardware
p1573
Vuniprocessor 64-bit UltraSPARC
p1574
ss(Vimage
p1575
g1543
NVsparc64
p1576
tp1577
(dp1578
Vconfigs
p1579
(lp1580
Vkernelarch-sparc/config-up
p1581
ass(Vdescription
p1582
g1543
NVsparc64-smp
p1583
tp1584
(dp1585
Vhardware
p1586
Vmultiprocessor 64-bit UltraSPARC
p1587
ss(Vimage
p1588
g1543
NVsparc64-smp
p1589
tp1590
(dp1591
Vconfigs
p1592
(lp1593
Vkernelarch-sparc/config-smp
p1594
ass(g223
g1543
g192
tp1595
(dp1596
g226
(lp1597
Vsparc64
p1598
aVsparc64-smp
p1599
asg230
I01
ss(Vbase
p1600
Vx32
p1601
tp1602
(dp1603
Vkernel-arch
p1604
Vx86
p1605
sVfeaturesets
p1606
(lp1607
ss(Vabi
p1608
NVrt
p1609
tp1610
(dp1611
Vignore-changes
p1612
(lp1613
V*
p1614
ass(Vdescription
p1615
Ng1609
tp1616
(dp1617
Vpart-long-rt
p1618
VThis kernel includes the PREEMPT_RT realtime patch set.
p1619
sVpart-short-rt
p1620
VPREEMPT_RT
p1621
sVparts
p1622
(lp1623
Vrt
p1624
ass(Vversion
p1625
tp1626
(dp1627
Vsource
p1628
V5.15.75-1pexip3
p1629
sVupstream
p1630
V5.15
p1631
sVabiname_base
p1632
V5.15.0
p1633
sVabiname
p1634
V5.15.0-1pexip1
p1635
ss.