cdebian_linux.config
ConfigCore
p0
(tRp1
(Vbase
p2
tp3
(dp4
Varches
p5
(lp6
Valpha
p7
aVamd64
p8
aVarm64
p9
aVarmel
p10
aVarmhf
p11
aVhppa
p12
aVi386
p13
aVia64
p14
aVm68k
p15
aVmips
p16
aVmips64
p17
aVmips64el
p18
aVmips64r6el
p19
aVmipsel
p20
aVpowerpc
p21
aVppc64
p22
aVppc64el
p23
aVriscv64
p24
aVs390x
p25
aVsh4
p26
aVsparc64
p27
aVx32
p28
asVcompiler
p29
Vgcc-12
p30
sVfeaturesets
p31
(lp32
Vnone
p33
aVrt
p34
ass(Vbuild
p35
tp36
(dp37
Vsigned-code
p38
I00
ss(Vbase
p39
NVrt
p40
tp41
(dp42
Venabled
p43
I00
ss(Vdescription
p44
tp45
(dp46
Vpart-long-up
p47
VThis kernel is not suitable for SMP (multi-processor, multi-core or hyper-threaded) systems.
p48
ss(Vimage
p49
tp50
(dp51
Vdepends
p52
(lp53
Vinitramfs-tools (>= 0.120+deb8u2) | linux-initramfs-tool
p54
asVbreaks
p55
(lp56
Vfwupdate (<< 12-7)
p57
aVwireless-regdb (<< 2019.06.03-1~)
p58
asVrecommends
p59
(lp60
Vapparmor
p61
ass(Vbase
p62
Valpha
p63
tp64
(dp65
Vdefault-flavour
p66
Valpha-smp
p67
sVkernel-arch
p68
Valpha
p69
sVfeaturesets
p70
(lp71
Vnone
p72
ass(Vbuild
p73
g63
tp74
(dp75
Vimage-file
p76
Varch/alpha/boot/vmlinux.gz
p77
ss(Vimage
p78
g63
tp79
(dp80
Vsuggests
p81
(lp82
Vaboot
p83
aVfdutils
p84
asVinstall-stem
p85
Vvmlinuz
p86
ss(Vdescription
p87
g63
NValpha-generic
p88
tp89
(dp90
Vhardware
p91
VAlpha
p92
sVhardware-long
p93
VDEC Alpha systems with extended kernel start address (Wildfire, Titan, Marvel)
p94
ss(Vpackages
p95
g63
NValpha-generic
p96
tp97
(dp98
Vinstaller
p99
I01
ss(Vdescription
p100
g63
NValpha-smp
p101
tp102
(dp103
Vhardware
p104
VAlpha SMP
p105
sVhardware-long
p106
VDEC Alpha SMP systems with extended kernel start address (Wildfire, Titan, Marvel)
p107
ss(Vbase
p108
g63
g72
tp109
(dp110
Vflavours
p111
(lp112
Valpha-generic
p113
aValpha-smp
p114
asVimplicit-flavour
p115
I01
ss(Vbase
p116
Vamd64
p117
tp118
(dp119
Vfeaturesets
p120
(lp121
Vnone
p122
asVkernel-arch
p123
Vx86
p124
ss(Vbuild
p125
g117
tp126
(dp127
Vimage-file
p128
Varch/x86/boot/bzImage
p129
sVsigned-code
p130
I00
sVvdso
p131
I01
ss(Vimage
p132
g117
tp133
(dp134
Vsuggests
p135
(lp136
Vgrub-pc | grub-efi-amd64 | extlinux
p137
asVinstall-stem
p138
Vvmlinuz
p139
ss(Vdescription
p140
g117
NVamd64
p141
tp142
(dp143
Vhardware
p144
V64-bit PCs
p145
sVhardware-long
p146
VPCs with AMD64, Intel 64 or VIA Nano processors
p147
ss(Vbase
p148
g117
Vnone
p149
tp150
(dp151
Vflavours
p152
(lp153
Vamd64
p154
asVdefault-flavour
p155
Vamd64
p156
sVquick-flavour
p157
Vcloud-amd64
p158
ss(Vpackages
p159
g117
g149
Vamd64
p160
tp161
(dp162
Vinstaller
p163
I01
ss(Vimage
p164
g117
g149
Vamd64
p165
tp166
(dp167
Vconfigs
p168
(lp169
Vconfig.cloud
p170
aVamd64/config.cloud-amd64
p171
aVamd64/config.pexip-amd64
p172
ass(Vbase
p173
Varm64
p174
tp175
(dp176
Vcompat-deb-arch
p177
Varmhf
p178
sVcompat-gnu-type
p179
Varm-linux-gnueabihf
p180
sVkernel-arch
p181
Varm64
p182
sVfeaturesets
p183
(lp184
Vnone
p185
aVrt
p186
ass(Vbuild
p187
g174
tp188
(dp189
Vimage-file
p190
Varch/arm64/boot/Image
p191
sVsigned-code
p192
I00
sVvdso
p193
I01
ss(Vimage
p194
g174
tp195
(dp196
Vinstall-stem
p197
Vvmlinuz
p198
ss(Vdescription
p199
g174
NVarm64
p200
tp201
(dp202
Vhardware
p203
V64-bit ARMv8 machines
p204
ss(Vdescription
p205
g174
NVcloud-arm64
p206
tp207
(dp208
Vhardware
p209
Varm64 cloud
p210
sVhardware-long
p211
Vcloud platforms supporting arm64 virtual machines
p212
ss(Vimage
p213
g174
NVarm64
p214
tp215
(dp216
s(Vbase
p217
g174
Vnone
p218
tp219
(dp220
Vflavours
p221
(lp222
Varm64
p223
aVcloud-arm64
p224
asVdefault-flavour
p225
Varm64
p226
sVquick-flavour
p227
Vcloud-arm64
p228
ss(Vpackages
p229
g174
g218
Varm64
p230
tp231
(dp232
Vinstaller
p233
I01
ss(Vimage
p234
g174
g218
Vcloud-arm64
p235
tp236
(dp237
Vconfigs
p238
(lp239
Vconfig.cloud
p240
aVarm64/config.cloud-arm64
p241
ass(Vbase
p242
g174
Vrt
p243
tp244
(dp245
Vflavours
p246
(lp247
Varm64
p248
ass(Vbase
p249
Varmel
p250
tp251
(dp252
Vkernel-arch
p253
Varm
p254
sg70
(lp255
g72
ass(Vbuild
p256
g250
tp257
(dp258
Vimage-file
p259
Varch/arm/boot/zImage
p260
sVuncompressed-image-file
p261
Varch/arm/boot/Image
p262
ss(Vimage
p263
g250
tp264
(dp265
Vinstall-stem
p266
Vvmlinuz
p267
ss(Vdescription
p268
g250
NVrpi
p269
tp270
(dp271
Vhardware
p272
VRaspberry Pi Zero, Zero W and 1
p273
sVhardware-long
p274
VRaspberry Pi Zero, Zero W and 1 based systems
p275
ss(g108
g250
g72
tp276
(dp277
g111
(lp278
Vrpi
p279
asg115
I01
ss(Vbase
p280
Varmhf
p281
tp282
(dp283
Vfeaturesets
p284
(lp285
Vnone
p286
aVrt
p287
asVkernel-arch
p288
Varm
p289
ss(Vbuild
p290
g281
tp291
(dp292
Vimage-file
p293
Varch/arm/boot/zImage
p294
sVvdso
p295
I01
ss(Vimage
p296
g281
tp297
(dp298
Vinstall-stem
p299
Vvmlinuz
p300
ss(Vdescription
p301
g281
NVarmmp
p302
tp303
(dp304
Vhardware
p305
VARMv7 multiplatform compatible SoCs
p306
sVhardware-long
p307
VARMv7 multiplatform kernel. See https://wiki.debian.org/DebianKernel/ARMMP for details of supported platforms
p308
ss(Vdescription
p309
g281
NVarmmp-lpae
p310
tp311
(dp312
Vhardware
p313
VARMv7 multiplatform compatible SoCs supporting LPAE
p314
sVhardware-long
p315
VARMv7 multiplatform kernel supporting LPAE. See https://wiki.debian.org/DebianKernel/ARMMP for details of supported platforms.
p316
ss(Vbase
p317
g281
Vnone
p318
tp319
(dp320
Vflavours
p321
(lp322
Varmmp
p323
aVarmmp-lpae
p324
asVdefault-flavour
p325
Varmmp
p326
ss(Vpackages
p327
g281
g318
Varmmp
p328
tp329
(dp330
Vinstaller
p331
I01
ss(Vbase
p332
g281
Vrt
p333
tp334
(dp335
Vflavours
p336
(lp337
Varmmp
p338
ass(Vbase
p339
Vhppa
p340
tp341
(dp342
Vdefault-flavour
p343
Vparisc
p344
sVkernel-arch
p345
Vparisc
p346
sg70
(lp347
g72
ass(Vbuild
p348
g340
tp349
(dp350
Vimage-file
p351
Varch/parisc/boot/bzImage
p352
ss(Vimage
p353
g340
tp354
(dp355
Vsuggests
p356
(lp357
Vpalo
p358
asVinstall-stem
p359
Vvmlinuz
p360
ss(Vdescription
p361
g340
NVparisc
p362
tp363
(dp364
Vhardware
p365
V32-bit PA-RISC
p366
sVhardware-long
p367
VHP PA-RISC 32-bit systems with max 4 GB RAM
p368
ss(Vpackages
p369
g340
NVparisc
p370
tp371
(dp372
Vinstaller
p373
I01
ss(Vbase
p374
g340
NVparisc64
p375
tp376
(dp377
Vcflags
p378
V-fno-cse-follow-jumps
p379
sVkernel-deb-arch
p380
Vundefined
p381
sVkernel-gnu-type
p382
Vhppa64-linux-gnu
p383
sVcompat-deb-arch
p384
Vhppa
p385
sVcompat-gnu-type
p386
Vhppa-linux-gnu
p387
ss(Vdescription
p388
g340
NVparisc64
p389
tp390
(dp391
Vhardware
p392
V64-bit PA-RISC
p393
sVhardware-long
p394
VHP PA-RISC 64-bit systems with support for more than 4 GB RAM
p395
ss(Vpackages
p396
g340
NVparisc64
p397
tp398
(dp399
Vinstaller
p400
I01
ss(g108
g340
g72
tp401
(dp402
g111
(lp403
Vparisc
p404
aVparisc64
p405
asg115
I01
ss(Vbase
p406
Vi386
p407
tp408
(dp409
Vfeaturesets
p410
(lp411
Vnone
p412
aVrt
p413
asVkernel-arch
p414
Vx86
p415
ss(Vbuild
p416
g407
tp417
(dp418
Vimage-file
p419
Varch/x86/boot/bzImage
p420
sVvdso
p421
I01
ss(Vdescription
p422
g407
tp423
(dp424
Vpart-long-pae
p425
VThis kernel requires PAE (Physical Address Extension). This feature is supported by the Intel Pentium Pro/II/III/4/4M/D, Xeon, Core and Atom; AMD Geode NX, Athlon (K7), Duron, Opteron, Sempron, Turion or Phenom; Transmeta Efficeon; VIA C7; and some other processors.
p426
ss(Vimage
p427
g407
tp428
(dp429
Vsuggests
p430
(lp431
Vgrub-pc | grub-efi-ia32 | extlinux
p432
asVinstall-stem
p433
Vvmlinuz
p434
ss(Vdescription
p435
g407
NV686
p436
tp437
(dp438
Vhardware
p439
Volder PCs
p440
sVhardware-long
p441
VPCs with one or more processors not supporting PAE
p442
ss(Vdescription
p443
g407
NV686-pae
p444
tp445
(dp446
Vhardware
p447
Vmodern PCs
p448
sVhardware-long
p449
VPCs with one or more processors supporting PAE
p450
sVparts
p451
(lp452
Vpae
p453
ass(Vbase
p454
g407
Vnone
p455
tp456
(dp457
Vflavours
p458
(lp459
V686
p460
aV686-pae
p461
asVdefault-flavour
p462
V686-pae
p463
ss(Vpackages
p464
g407
g455
V686
p465
tp466
(dp467
Vinstaller
p468
I01
ss(Vpackages
p469
g407
g455
V686-pae
p470
tp471
(dp472
Vinstaller
p473
I01
ss(Vbase
p474
g407
Vrt
p475
tp476
(dp477
Vflavours
p478
(lp479
V686-pae
p480
ass(Vbase
p481
Via64
p482
tp483
(dp484
Vdefault-flavour
p485
Vitanium
p486
sVkernel-arch
p487
Via64
p488
sVcompiler
p489
Vgcc-12
p490
sg70
(lp491
g72
ass(Vbuild
p492
g482
tp493
(dp494
Vimage-file
p495
Vvmlinux.gz
p496
ss(Vimage
p497
g482
tp498
(dp499
Vsuggests
p500
(lp501
Vgrub-efi-ia64
p502
asVinstall-stem
p503
Vvmlinuz
p504
ss(Vdescription
p505
g482
NVitanium
p506
tp507
(dp508
Vhardware
p509
VItanium (Merced)
p510
sVhardware-long
p511
Vsystems with original Itanium (Merced) processors
p512
ss(Vpackages
p513
g482
NVitanium
p514
tp515
(dp516
Vinstaller
p517
I01
ss(Vdescription
p518
g482
NVmckinley
p519
tp520
(dp521
Vhardware
p522
VItanium 2+
p523
sVhardware-long
p524
Vsystems with Itanium 2 or 9300/9500/9700-series processors
p525
ss(g108
g482
g72
tp526
(dp527
g111
(lp528
Vitanium
p529
aVmckinley
p530
asg115
I01
ss(Vbase
p531
Vm68k
p532
tp533
(dp534
Vcflags
p535
V-ffreestanding
p536
sVdefault-flavour
p537
Vm68k
p538
sVkernel-arch
p539
Vm68k
p540
sg70
(lp541
g72
ass(Vbuild
p542
g532
tp543
(dp544
Vimage-file
p545
Vvmlinux
p546
ss(Vimage
p547
g532
tp548
(dp549
Vsuggests
p550
(lp551
Vvmelilo
p552
aVfdutils
p553
asVinstall-stem
p554
Vvmlinux
p555
ss(Vdescription
p556
g532
NVm68k
p557
tp558
(dp559
Vhardware
p560
VMotorola MC68020+ family
p561
ss(Vpackages
p562
g532
NVm68k
p563
tp564
(dp565
Vinstaller
p566
I01
ss(g108
g532
g72
tp567
(dp568
g111
(lp569
Vm68k
p570
asg115
I01
ss(Vbase
p571
Vmips
p572
tp573
(dp574
Vkernel-arch
p575
Vmips
p576
sg70
(lp577
g72
ass(Vbuild
p578
g572
tp579
(dp580
Vimage-file
p581
Vvmlinuz
p582
ss(Vimage
p583
g572
tp584
(dp585
Vinstall-stem
p586
Vvmlinuz
p587
ss(Vdescription
p588
g572
NV4kc-malta
p589
tp590
(dp591
Vhardware
p592
VMIPS Malta
p593
sVhardware-long
p594
VMIPS Malta boards
p595
ss(Vimage
p596
g572
NV4kc-malta
p597
tp598
(dp599
Vconfigs
p600
(lp601
Vkernelarch-mips/config.malta
p602
aVkernelarch-mips/config.mips32r2
p603
ass(Vpackages
p604
g572
NV4kc-malta
p605
tp606
(dp607
Vinstaller
p608
I01
ss(Vdescription
p609
g572
NVmips32r2eb
p610
tp611
(dp612
Vhardware
p613
VMIPS Generic (mips32r2eb)
p614
sVhardware-long
p615
VMIPS Generic platform (mips32r2eb)
p616
ss(Vimage
p617
g572
NVmips32r2eb
p618
tp619
(dp620
Vconfigs
p621
(lp622
Vkernelarch-mips/config.boston
p623
aVkernelarch-mips/config.mips32r2
p624
ass(Vpackages
p625
g572
NVmips32r2eb
p626
tp627
(dp628
Vinstaller
p629
I01
ss(Vdescription
p630
g572
NVocteon
p631
tp632
(dp633
Vhardware
p634
VOcteon
p635
sVhardware-long
p636
VCavium Networks Octeon
p637
ss(Vbuild
p638
g572
NVocteon
p639
tp640
(dp641
Vimage-file
p642
Vvmlinux
p643
ss(Vimage
p644
g572
NVocteon
p645
tp646
(dp647
Vinstall-stem
p648
Vvmlinux
p649
sVconfigs
p650
(lp651
Vkernelarch-mips/config.octeon
p652
ass(Vpackages
p653
g572
NVocteon
p654
tp655
(dp656
Vinstaller
p657
I01
ss(g108
g572
g72
tp658
(dp659
g111
(lp660
V4kc-malta
p661
aVmips32r2eb
p662
aVocteon
p663
asg115
I01
ss(Vbase
p664
Vmips64
p665
tp666
(dp667
Vkernel-arch
p668
Vmips
p669
sg70
(lp670
g72
ass(Vbuild
p671
g665
tp672
(dp673
Vimage-file
p674
Vvmlinuz
p675
ss(Vimage
p676
g665
tp677
(dp678
Vinstall-stem
p679
Vvmlinuz
p680
ss(Vdescription
p681
g665
NV5kc-malta
p682
tp683
(dp684
Vhardware
p685
VMIPS Malta
p686
sVhardware-long
p687
VMIPS Malta boards
p688
ss(Vimage
p689
g665
NV5kc-malta
p690
tp691
(dp692
Vconfigs
p693
(lp694
Vkernelarch-mips/config.malta
p695
aVkernelarch-mips/config.mips64r2
p696
ass(Vpackages
p697
g665
NV5kc-malta
p698
tp699
(dp700
Vinstaller
p701
I01
ss(Vdescription
p702
g665
NVmips64r2eb
p703
tp704
(dp705
Vhardware
p706
VMIPS Generic (mips64r2eb)
p707
sVhardware-long
p708
VMIPS Generic platform (mips64r2eb)
p709
ss(Vimage
p710
g665
NVmips64r2eb
p711
tp712
(dp713
Vconfigs
p714
(lp715
Vkernelarch-mips/config.boston
p716
aVkernelarch-mips/config.mips64r2
p717
ass(Vpackages
p718
g665
NVmips64r2eb
p719
tp720
(dp721
Vinstaller
p722
I01
ss(Vdescription
p723
g665
NVocteon
p724
tp725
(dp726
Vhardware
p727
VOcteon
p728
sVhardware-long
p729
VCavium Networks Octeon
p730
ss(Vbuild
p731
g665
NVocteon
p732
tp733
(dp734
Vimage-file
p735
Vvmlinux
p736
ss(Vimage
p737
g665
NVocteon
p738
tp739
(dp740
Vinstall-stem
p741
Vvmlinux
p742
sVconfigs
p743
(lp744
Vkernelarch-mips/config.octeon
p745
ass(Vpackages
p746
g665
NVocteon
p747
tp748
(dp749
Vinstaller
p750
I01
ss(g108
g665
g72
tp751
(dp752
g111
(lp753
V5kc-malta
p754
aVmips64r2eb
p755
aVocteon
p756
asg115
I01
ss(Vbase
p757
Vmips64el
p758
tp759
(dp760
Vkernel-arch
p761
Vmips
p762
sg70
(lp763
g72
ass(Vbuild
p764
g758
tp765
(dp766
Vimage-file
p767
Vvmlinuz
p768
ss(Vimage
p769
g758
tp770
(dp771
Vinstall-stem
p772
Vvmlinuz
p773
ss(Vdescription
p774
g758
NV5kc-malta
p775
tp776
(dp777
Vhardware
p778
VMIPS Malta
p779
sVhardware-long
p780
VMIPS Malta boards
p781
ss(Vimage
p782
g758
NV5kc-malta
p783
tp784
(dp785
Vconfigs
p786
(lp787
Vkernelarch-mips/config.malta
p788
aVkernelarch-mips/config.mips64r2
p789
ass(Vpackages
p790
g758
NV5kc-malta
p791
tp792
(dp793
Vinstaller
p794
I01
ss(Vdescription
p795
g758
NVmips64r2el
p796
tp797
(dp798
Vhardware
p799
VMIPS Generic (mips64r2el)
p800
sVhardware-long
p801
VMIPS Generic platform (mips64r2el)
p802
ss(Vimage
p803
g758
NVmips64r2el
p804
tp805
(dp806
Vconfigs
p807
(lp808
Vkernelarch-mips/config.boston
p809
aVkernelarch-mips/config.mips64r2
p810
ass(Vpackages
p811
g758
NVmips64r2el
p812
tp813
(dp814
Vinstaller
p815
I01
ss(Vdescription
p816
g758
NVloongson-3
p817
tp818
(dp819
Vhardware
p820
VLoongson 3A/3B
p821
sVhardware-long
p822
VLoongson 3A or 3B based systems (e.g. from Loongson or Lemote)
p823
ss(Vimage
p824
g758
NVloongson-3
p825
tp826
(dp827
Vrecommends
p828
(lp829
Vpmon-update
p830
asVconfigs
p831
(lp832
Vkernelarch-mips/config.loongson-3
p833
ass(Vpackages
p834
g758
NVloongson-3
p835
tp836
(dp837
Vinstaller
p838
I01
ss(Vdescription
p839
g758
NVocteon
p840
tp841
(dp842
Vhardware
p843
VOcteon
p844
sVhardware-long
p845
VCavium Networks Octeon
p846
ss(Vbuild
p847
g758
NVocteon
p848
tp849
(dp850
Vimage-file
p851
Vvmlinux
p852
ss(Vimage
p853
g758
NVocteon
p854
tp855
(dp856
Vinstall-stem
p857
Vvmlinux
p858
sVconfigs
p859
(lp860
Vkernelarch-mips/config.octeon
p861
ass(Vpackages
p862
g758
NVocteon
p863
tp864
(dp865
Vinstaller
p866
I01
ss(g108
g758
g72
tp867
(dp868
g111
(lp869
V5kc-malta
p870
aVmips64r2el
p871
aVloongson-3
p872
aVocteon
p873
asg115
I01
ss(Vbase
p874
Vmips64r6el
p875
tp876
(dp877
Vkernel-arch
p878
Vmips
p879
sg70
(lp880
g72
ass(Vbuild
p881
g875
tp882
(dp883
Vimage-file
p884
Vvmlinuz
p885
ss(Vimage
p886
g875
tp887
(dp888
Vinstall-stem
p889
Vvmlinuz
p890
ss(Vdescription
p891
g875
NVmips64r6el
p892
tp893
(dp894
Vhardware
p895
VMIPS Generic (mips64r6el)
p896
sVhardware-long
p897
VMIPS Generic platform (mips64r6el)
p898
ss(Vimage
p899
g875
NVmips64r6el
p900
tp901
(dp902
Vconfigs
p903
(lp904
Vkernelarch-mips/config.boston
p905
aVkernelarch-mips/config.mips64r6
p906
ass(Vpackages
p907
g875
NVmips64r6el
p908
tp909
(dp910
Vinstaller
p911
I01
ss(g108
g875
g72
tp912
(dp913
g111
(lp914
Vmips64r6el
p915
asg115
I01
ss(Vbase
p916
Vmipsel
p917
tp918
(dp919
Vkernel-arch
p920
Vmips
p921
sg70
(lp922
g72
ass(Vbuild
p923
g917
tp924
(dp925
Vimage-file
p926
Vvmlinuz
p927
ss(Vimage
p928
g917
tp929
(dp930
Vinstall-stem
p931
Vvmlinuz
p932
ss(Vdescription
p933
g917
NV4kc-malta
p934
tp935
(dp936
Vhardware
p937
VMIPS Malta
p938
sVhardware-long
p939
VMIPS Malta boards
p940
ss(Vimage
p941
g917
NV4kc-malta
p942
tp943
(dp944
Vconfigs
p945
(lp946
Vkernelarch-mips/config.malta
p947
aVkernelarch-mips/config.mips32r2
p948
ass(Vpackages
p949
g917
NV4kc-malta
p950
tp951
(dp952
Vinstaller
p953
I01
ss(Vdescription
p954
g917
NVmips32r2el
p955
tp956
(dp957
Vhardware
p958
VMIPS Generic (mips32r2el)
p959
sVhardware-long
p960
VMIPS Generic platform (mips32r2el)
p961
ss(Vimage
p962
g917
NVmips32r2el
p963
tp964
(dp965
Vconfigs
p966
(lp967
Vkernelarch-mips/config.boston
p968
aVkernelarch-mips/config.mips32r2
p969
ass(Vpackages
p970
g917
NVmips32r2el
p971
tp972
(dp973
Vinstaller
p974
I01
ss(Vdescription
p975
g917
NVloongson-3
p976
tp977
(dp978
Vhardware
p979
VLoongson 3A/3B
p980
sVhardware-long
p981
VLoongson 3A or 3B based systems (e.g. from Loongson or Lemote)
p982
ss(Vimage
p983
g917
NVloongson-3
p984
tp985
(dp986
Vrecommends
p987
(lp988
Vpmon-update
p989
asVconfigs
p990
(lp991
Vkernelarch-mips/config.loongson-3
p992
ass(Vpackages
p993
g917
NVloongson-3
p994
tp995
(dp996
Vinstaller
p997
I01
ss(Vdescription
p998
g917
NVocteon
p999
tp1000
(dp1001
Vhardware
p1002
VOcteon
p1003
sVhardware-long
p1004
VCavium Networks Octeon
p1005
ss(Vbuild
p1006
g917
NVocteon
p1007
tp1008
(dp1009
Vimage-file
p1010
Vvmlinux
p1011
ss(Vimage
p1012
g917
NVocteon
p1013
tp1014
(dp1015
Vinstall-stem
p1016
Vvmlinux
p1017
sVconfigs
p1018
(lp1019
Vkernelarch-mips/config.octeon
p1020
ass(Vpackages
p1021
g917
NVocteon
p1022
tp1023
(dp1024
Vinstaller
p1025
I01
ss(g108
g917
g72
tp1026
(dp1027
g111
(lp1028
V4kc-malta
p1029
aVmips32r2el
p1030
aVloongson-3
p1031
aVocteon
p1032
asg115
I01
ss(Vbase
p1033
Vpowerpc
p1034
tp1035
(dp1036
Vkernel-arch
p1037
Vpowerpc
p1038
sg70
(lp1039
g72
ass(Vbuild
p1040
g1034
tp1041
(dp1042
Vimage-file
p1043
Vvmlinux
p1044
ss(Vimage
p1045
g1034
tp1046
(dp1047
Vconfigs
p1048
(lp1049
sVsuggests
p1050
(lp1051
Vmkvmlinuz
p1052
aVgrub-ieee1275
p1053
asVinstall-stem
p1054
Vvmlinux
p1055
ss(Vdescription
p1056
g1034
NVpowerpc
p1057
tp1058
(dp1059
Vhardware
p1060
Vuniprocessor 32-bit PowerPC
p1061
ss(Vpackages
p1062
g1034
NVpowerpc
p1063
tp1064
(dp1065
Vinstaller
p1066
I01
ss(Vdescription
p1067
g1034
NVpowerpc-smp
p1068
tp1069
(dp1070
Vhardware
p1071
Vmultiprocessor 32-bit PowerPC
p1072
ss(Vimage
p1073
g1034
NVpowerpc-smp
p1074
tp1075
(dp1076
Vconfigs
p1077
(lp1078
Vpowerpc/config.powerpc
p1079
aVpowerpc/config.powerpc-smp
p1080
ass(Vdescription
p1081
g1034
NVpowerpc64
p1082
tp1083
(dp1084
Vhardware
p1085
V64-bit PowerPC
p1086
ss(Vimage
p1087
g1034
NVpowerpc64
p1088
tp1089
(dp1090
Vconfigs
p1091
(lp1092
Vkernelarch-powerpc/config-arch-64
p1093
aVkernelarch-powerpc/config-arch-64-be
p1094
ass(Vpackages
p1095
g1034
NVpowerpc64
p1096
tp1097
(dp1098
Vinstaller
p1099
I01
ss(g108
g1034
g72
tp1100
(dp1101
g111
(lp1102
Vpowerpc
p1103
aVpowerpc-smp
p1104
aVpowerpc64
p1105
asg115
I01
ss(Vbase
p1106
Vppc64
p1107
tp1108
(dp1109
Vdefault-flavour
p1110
Vpowerpc64
p1111
sVkernel-arch
p1112
Vpowerpc
p1113
sg70
(lp1114
g72
ass(Vbuild
p1115
g1107
tp1116
(dp1117
Vimage-file
p1118
Vvmlinux
p1119
ss(Vimage
p1120
g1107
tp1121
(dp1122
Vconfigs
p1123
(lp1124
sVsuggests
p1125
(lp1126
Vmkvmlinuz
p1127
aVgrub-ieee1275
p1128
asVinstall-stem
p1129
Vvmlinux
p1130
ss(Vdescription
p1131
g1107
NVpowerpc64
p1132
tp1133
(dp1134
Vhardware
p1135
V64-bit PowerPC
p1136
ss(Vimage
p1137
g1107
NVpowerpc64
p1138
tp1139
(dp1140
Vconfigs
p1141
(lp1142
Vkernelarch-powerpc/config-arch-64
p1143
aVkernelarch-powerpc/config-arch-64-be
p1144
ass(Vpackages
p1145
g1107
NVpowerpc64
p1146
tp1147
(dp1148
Vinstaller
p1149
I01
ss(g108
g1107
g72
tp1150
(dp1151
g111
(lp1152
Vpowerpc64
p1153
asg115
I01
ss(Vbase
p1154
Vppc64el
p1155
tp1156
(dp1157
Vdefault-flavour
p1158
Vpowerpc64le
p1159
sVkernel-arch
p1160
Vpowerpc
p1161
sg70
(lp1162
g72
ass(Vbuild
p1163
g1155
tp1164
(dp1165
Vimage-file
p1166
Vvmlinux
p1167
ss(Vimage
p1168
g1155
tp1169
(dp1170
Vconfigs
p1171
(lp1172
sVsuggests
p1173
(lp1174
Vmkvmlinuz
p1175
aVgrub-ieee1275
p1176
asVinstall-stem
p1177
Vvmlinux
p1178
ss(Vdescription
p1179
g1155
NVpowerpc64le
p1180
tp1181
(dp1182
Vhardware
p1183
VLittle-endian 64-bit PowerPC
p1184
ss(Vimage
p1185
g1155
NVpowerpc64le
p1186
tp1187
(dp1188
Vconfigs
p1189
(lp1190
Vkernelarch-powerpc/config-arch-64
p1191
aVkernelarch-powerpc/config-arch-64-le
p1192
ass(Vpackages
p1193
g1155
NVpowerpc64le
p1194
tp1195
(dp1196
Vinstaller
p1197
I01
ss(g108
g1155
g72
tp1198
(dp1199
g111
(lp1200
Vpowerpc64le
p1201
asg115
I01
ss(Vbase
p1202
Vriscv64
p1203
tp1204
(dp1205
Vkernel-arch
p1206
Vriscv
p1207
sVfeaturesets
p1208
(lp1209
Vnone
p1210
ass(Vbuild
p1211
g1203
tp1212
(dp1213
Vimage-file
p1214
Varch/riscv/boot/Image
p1215
sVvdso
p1216
I01
ss(Vimage
p1217
g1203
tp1218
(dp1219
Vinstall-stem
p1220
Vvmlinux
p1221
ss(Vdescription
p1222
g1203
NVriscv64
p1223
tp1224
(dp1225
Vhardware
p1226
V64-bit RISC-V platforms
p1227
sVhardware-long
p1228
V64-bit RISC-V platforms
p1229
ss(Vbase
p1230
g1203
Vnone
p1231
tp1232
(dp1233
Vflavours
p1234
(lp1235
Vriscv64
p1236
asVdefault-flavour
p1237
Vriscv64
p1238
ss(Vpackages
p1239
g1203
g1231
Vriscv64
p1240
tp1241
(dp1242
Vinstaller
p1243
I01
ss(Vbase
p1244
Vs390x
p1245
tp1246
(dp1247
Vdefault-flavour
p1248
Vs390x
p1249
sVkernel-arch
p1250
Vs390
p1251
sg70
(lp1252
g72
ass(Vbuild
p1253
g1245
tp1254
(dp1255
Vimage-file
p1256
Varch/s390/boot/bzImage
p1257
sVvdso
p1258
I01
ss(Vimage
p1259
g1245
tp1260
(dp1261
Vsuggests
p1262
(lp1263
Vs390-tools
p1264
asVinstall-stem
p1265
Vvmlinuz
p1266
ss(Vdescription
p1267
g1245
NVs390x
p1268
tp1269
(dp1270
Vhardware
p1271
VIBM zSeries
p1272
ss(Vpackages
p1273
g1245
NVs390x
p1274
tp1275
(dp1276
Vinstaller
p1277
I01
ss(g108
g1245
g72
tp1278
(dp1279
g111
(lp1280
Vs390x
p1281
asg115
I01
ss(Vbase
p1282
Vsh4
p1283
tp1284
(dp1285
Vkernel-arch
p1286
Vsh
p1287
sg70
(lp1288
g72
ass(Vbuild
p1289
g1283
tp1290
(dp1291
Vimage-file
p1292
Varch/sh/boot/zImage
p1293
ss(Vimage
p1294
g1283
tp1295
(dp1296
Vinstall-stem
p1297
Vvmlinuz
p1298
ss(Vdescription
p1299
g1283
NVsh7751r
p1300
tp1301
(dp1302
Vhardware
p1303
Vsh7751r
p1304
sVhardware-long
p1305
VRenesas SH7751R R2D plus board
p1306
ss(Vpackages
p1307
g1283
NVsh7751r
p1308
tp1309
(dp1310
Vinstaller
p1311
I01
ss(Vdescription
p1312
g1283
NVsh7785lcr
p1313
tp1314
(dp1315
Vhardware
p1316
Vsh7785lcr
p1317
sVhardware-long
p1318
VRenesas SH7785 reference board
p1319
ss(Vimage
p1320
g1283
NVsh7785lcr
p1321
tp1322
(dp1323
Vrecommends
p1324
(lp1325
Vu-boot-tools
p1326
asVcheck-size
p1327
I4194304
ss(Vpackages
p1328
g1283
NVsh7785lcr
p1329
tp1330
(dp1331
Vinstaller
p1332
I01
ss(g108
g1283
g72
tp1333
(dp1334
g111
(lp1335
Vsh7751r
p1336
aVsh7785lcr
p1337
asg115
I01
ss(Vbase
p1338
Vsparc64
p1339
tp1340
(dp1341
Vdefault-flavour
p1342
Vsparc64-smp
p1343
sVkernel-arch
p1344
Vsparc
p1345
sg70
(lp1346
g72
ass(Vbuild
p1347
g1339
tp1348
(dp1349
Vimage-file
p1350
Vvmlinux
p1351
ss(Vimage
p1352
g1339
tp1353
(dp1354
Vconfigs
p1355
(lp1356
sVsuggests
p1357
(lp1358
Vfdutils
p1359
aVgrub-ieee1275
p1360
asVinstall-stem
p1361
Vvmlinux
p1362
ss(Vdescription
p1363
g1339
NVsparc64
p1364
tp1365
(dp1366
Vhardware
p1367
Vuniprocessor 64-bit UltraSPARC
p1368
ss(Vimage
p1369
g1339
NVsparc64
p1370
tp1371
(dp1372
Vconfigs
p1373
(lp1374
Vkernelarch-sparc/config-up
p1375
ass(Vpackages
p1376
g1339
NVsparc64
p1377
tp1378
(dp1379
Vinstaller
p1380
I01
ss(Vdescription
p1381
g1339
NVsparc64-smp
p1382
tp1383
(dp1384
Vhardware
p1385
Vmultiprocessor 64-bit UltraSPARC
p1386
ss(Vimage
p1387
g1339
NVsparc64-smp
p1388
tp1389
(dp1390
Vconfigs
p1391
(lp1392
Vkernelarch-sparc/config-smp
p1393
ass(g108
g1339
g72
tp1394
(dp1395
g111
(lp1396
Vsparc64
p1397
aVsparc64-smp
p1398
asg115
I01
ss(Vbase
p1399
Vx32
p1400
tp1401
(dp1402
Vkernel-arch
p1403
Vx86
p1404
sVfeaturesets
p1405
(lp1406
ss(Vabi
p1407
NVrt
p1408
tp1409
(dp1410
Vignore-changes
p1411
V*
p1412
ss(Vdescription
p1413
Ng1408
tp1414
(dp1415
Vpart-long-rt
p1416
VThis kernel includes the PREEMPT_RT realtime patch set.
p1417
sVpart-short-rt
p1418
VPREEMPT_RT
p1419
sVparts
p1420
(lp1421
Vrt
p1422
ass(Vversion
p1423
tp1424
(dp1425
Vsource
p1426
V6.6.15-2+pexip24u1
p1427
sVupstream
p1428
V6.6
p1429
sVabiname_base
p1430
V6.6.15+pexip
p1431
sVabiname
p1432
g1431
ss.