ccopy_reg
_reconstructor
p0
(cdebian_linux.config
ConfigCore
p1
c__builtin__
dict
p2
(dp3
(S'image'
p4
S'amd64'
p5
tp6
(dp7
S'install-stem'
p8
S'vmlinuz'
p9
sS'configs'
p10
(lp11
sS'bootloaders'
p12
(lp13
S'grub-pc'
p14
aS'extlinux'
p15
aS'lilo'
p16
ass(S'description'
p17
S'arm64'
p18
NS'arm64'
p19
tp20
(dp21
S'hardware'
p22
S'64-bit ARMv8 machines'
p23
ss(S'description'
p24
S'ia64'
p25
NS'itanium'
p26
tp27
(dp28
S'hardware'
p29
S'Itanium'
p30
ss(S'base'
p31
g5
S'none'
p32
tp33
(dp34
S'flavours'
p35
(lp36
S'amd64'
p37
ass(S'image'
p38
S'armel'
p39
NS'ixp4xx'
p40
tp41
(dp42
S'check-size'
p43
S'1441760'
p44
sS'configs'
p45
(lp46
S'armel/config-reduced'
p47
aS'armel/config.ixp4xx'
p48
ass(S'image'
p49
g25
tp50
(dp51
S'suggests'
p52
S'fdutils'
p53
sS'bootloaders'
p54
(lp55
S'elilo'
p56
asS'install-stem'
p57
S'vmlinuz'
p58
ss(S'version'
p59
tp60
(dp61
S'abiname'
p62
S'3.14-2'
p63
sS'source'
p64
V3.14.13-2
p65
sS'upstream'
p66
S'3.14'
p67
ss(S'description'
p68
g5
g32
S'amd64'
p69
tp70
(dp71
S'parts'
p72
(lp73
S'xen'
p74
ass(S'image'
p75
S'mips'
p76
NS'octeon'
p77
tp78
(dp79
S'configs'
p80
(lp81
S'kernelarch-mips/config.octeon'
p82
ass(S'description'
p83
S'mipsel'
p84
NS'loongson-2f'
p85
tp86
(dp87
S'hardware'
p88
S'Loongson 2F'
p89
sS'hardware-long'
p90
S'Lemote Loongson 2F systems'
p91
ss(S'description'
p92
S'mips64el'
p93
NS'loongson-3'
p94
tp95
(dp96
S'hardware'
p97
S'Loongson 3A/3B'
p98
sS'hardware-long'
p99
S'Loongson 3A or 3B based systems (e.g. from Loongson or Lemote)'
p100
ss(S'image'
p101
S'sh4'
p102
tp103
(dp104
S'suggests'
p105
S'fdutils'
p106
sS'install-stem'
p107
S'vmlinuz'
p108
ss(S'image'
p109
g84
NS'loongson-2f'
p110
tp111
(dp112
S'configs'
p113
(lp114
S'kernelarch-mips/config.loongson-2f'
p115
asS'recommends'
p116
S'libc6-loongson2f'
p117
ss(S'description'
p118
S'powerpc'
p119
NS'powerpc-smp'
p120
tp121
(dp122
S'hardware'
p123
S'multiprocessor 32-bit PowerPC'
p124
ss(S'description'
p125
g84
NS'sb1-bcm91250a'
p126
tp127
(dp128
S'hardware'
p129
S'BCM91250A'
p130
sS'hardware-long'
p131
S'Broadcom BCM91250A systems (aka SWARM)'
p132
ss(S'base'
p133
S'alpha'
p134
tp135
(dp136
S'kernel-arch'
p137
S'alpha'
p138
sS'featuresets'
p139
(lp140
S'none'
p141
ass(S'image'
p142
g84
NS'loongson-3'
p143
tp144
(dp145
S'configs'
p146
(lp147
S'kernelarch-mips/config.loongson-3'
p148
ass(S'image'
p149
g84
NS'5kc-malta'
p150
tp151
(dp152
S'configs'
p153
(lp154
S'kernelarch-mips/config.5kc-malta'
p155
ass(S'image'
p156
S'sparc64'
p157
NS'sparc64-smp'
p158
tp159
(dp160
S'configs'
p161
(lp162
S'kernelarch-sparc/config-smp'
p163
ass(S'base'
p164
S'armhf'
p165
g141
tp166
(dp167
S'implicit-flavour'
p168
I01
sS'flavours'
p169
(lp170
S'armmp'
p171
aS'armmp-lpae'
p172
ass(S'description'
p173
g25
NS'mckinley'
p174
tp175
(dp176
S'hardware'
p177
S'Itanium II'
p178
ss(S'image'
p179
g84
NS'sb1-bcm91250a'
p180
tp181
(dp182
S'configs'
p183
(lp184
S'kernelarch-mips/config.sb1-bcm91250a'
p185
ass(S'base'
p186
S'i386'
p187
S'rt'
p188
tp189
(dp190
S'flavours'
p191
(lp192
S'686-pae'
p193
ass(S'relations'
p194
g39
tp195
(dp196
S'headers%gcc-4.8'
p197
S'linux-compiler-gcc-4.8-arm'
p198
ss(S'image'
p199
S'ppc64el'
p200
tp201
(dp202
S'suggests'
p203
S'mkvmlinuz'
p204
sS'configs'
p205
(lp206
sS'install-stem'
p207
S'vmlinux'
p208
ss(S'image'
p209
S's390x'
p210
NS's390x'
p211
tp212
(dp213
S'configs'
p214
(lp215
S'kernelarch-s390/config-arch-64'
p216
ass(S'relations'
p217
g187
tp218
(dp219
S'headers%gcc-4.8'
p220
S'linux-compiler-gcc-4.8-x86'
p221
ss(S'description'
p222
g76
NS'4kc-malta'
p223
tp224
(dp225
S'hardware'
p226
S'MIPS Malta'
p227
sS'hardware-long'
p228
S'MIPS Malta boards'
p229
ss(S'image'
p230
g119
tp231
(dp232
S'suggests'
p233
S'mkvmlinuz'
p234
sS'configs'
p235
(lp236
sS'install-stem'
p237
S'vmlinux'
p238
ss(S'description'
p239
g187
NS'486'
p240
tp241
(dp242
S'hardware'
p243
S'older PCs'
p244
sS'parts'
p245
(lp246
S'up'
p247
asS'hardware-long'
p248
S'PCs with a single processor not supporting PAE'
p249
ss(S'base'
p250
g5
S'rt'
p251
tp252
(dp253
S'flavours'
p254
(lp255
S'amd64'
p256
ass(S'image'
p257
g165
NS'armmp-lpae'
p258
tp259
(dp260
S'configs'
p261
(lp262
S'armhf/config.armmp'
p263
aS'armhf/config.lpae'
p264
ass(S'build'
p265
g200
tp266
(dp267
S'image-file'
p268
S'vmlinux'
p269
ss(S'build'
p270
S'ppc64'
p271
tp272
(dp273
S'image-file'
p274
S'vmlinux'
p275
ss(S'description'
p276
g102
NS'sh7751r'
p277
tp278
(dp279
S'hardware'
p280
S'sh7751r'
p281
sS'hardware-long'
p282
S'Renesas SH7751R R2D plus board'
p283
ss(S'description'
p284
g187
S'none'
p285
S'amd64'
p286
tp287
(dp288
S'parts'
p289
(lp290
S'xen'
p291
ass(S'base'
p292
g18
tp293
(dp294
S'kernel-arch'
p295
S'arm64'
p296
sS'featuresets'
p297
(lp298
S'none'
p299
ass(S'image'
p300
g39
NS'kirkwood'
p301
tp302
(dp303
S'check-size'
p304
S'2097080'
p305
sS'recommends'
p306
S'uboot-mkimage'
p307
ss(S'base'
p308
g187
tp309
(dp310
S'kernel-arch'
p311
S'x86'
p312
sS'featuresets'
p313
(lp314
S'none'
p315
aS'rt'
p316
ass(S'base'
p317
g84
tp318
(dp319
S'kernel-arch'
p320
S'mips'
p321
sg139
(lp322
g141
ass(S'description'
p323
S'hppa'
p324
NS'parisc'
p325
tp326
(dp327
S'hardware'
p328
S'32-bit PA-RISC'
p329
sS'hardware-long'
p330
S'HP PA-RISC 32-bit systems with max 4 GB RAM'
p331
ss(S'relations'
p332
g5
tp333
(dp334
S'headers%gcc-4.8'
p335
S'linux-compiler-gcc-4.8-x86'
p336
ss(S'description'
p337
g93
NS'loongson-2f'
p338
tp339
(dp340
S'hardware'
p341
S'Loongson 2F'
p342
sS'hardware-long'
p343
S'Lemote Loongson 2F systems'
p344
ss(S'description'
p345
S'sparc'
p346
NS'sparc64'
p347
tp348
(dp349
S'hardware'
p350
S'uniprocessor 64-bit UltraSPARC'
p351
ss(S'base'
p352
g324
tp353
(dp354
S'kernel-arch'
p355
S'parisc'
p356
sg139
(lp357
g141
ass(S'description'
p358
g93
NS'loongson-2e'
p359
tp360
(dp361
S'hardware'
p362
S'Loongson 2E'
p363
sS'hardware-long'
p364
S'Lemote Loongson 2E systems'
p365
ss(S'description'
p366
g39
NS'orion5x'
p367
tp368
(dp369
S'hardware'
p370
S'Marvell Orion'
p371
sS'hardware-long'
p372
S'Marvell Orion 5181, 5182 and 5281 based systems (QNAP TS-109/TS-209, etc)'
p373
ss(S'relations'
p374
S's390'
p375
tp376
(dp377
S'headers%gcc-4.8'
p378
S'linux-compiler-gcc-4.8-s390'
p379
ss(g164
g84
g141
tp380
(dp381
g168
I01
sg169
(lp382
S'sb1-bcm91250a'
p383
aS'4kc-malta'
p384
aS'5kc-malta'
p385
aS'loongson-2e'
p386
aS'loongson-2f'
p387
aS'loongson-3'
p388
ass(S'description'
p389
g39
NS'versatile'
p390
tp391
(dp392
S'hardware'
p393
S'Versatile'
p394
sS'hardware-long'
p395
S'Versatile systems (PB, AB, Qemu)'
p396
ss(S'description'
p397
S'powerpcspe'
p398
tp399
(dp400
S'hardware'
p401
S'32-bit PowerPC with SPE (instead of AltiVec) with SMP support'
p402
ss(S'image'
p403
g102
NS'sh7785lcr'
p404
tp405
(dp406
S'check-size'
p407
S'4194304'
p408
sS'recommends'
p409
S'uboot-mkimage'
p410
ss(S'relations'
p411
tp412
(dp413
S'gcc-4.8'
p414
S'gcc-4.8'
p415
sS'initramfs-fallback'
p416
S'linux-initramfs-tool'
p417
sS'gcc-4.7'
p418
S'gcc-4.7'
p419
sS'gcc-4.6'
p420
S'gcc-4.6'
p421
sS'gcc-4.4'
p422
S'gcc-4.4'
p423
sS'initramfs-tools'
p424
S'initramfs-tools (>= 0.110~)'
p425
ss(S'description'
p426
g187
NS'686-pae'
p427
tp428
(dp429
S'hardware'
p430
S'modern PCs'
p431
sS'parts'
p432
(lp433
S'pae'
p434
asS'hardware-long'
p435
S'PCs with one or more processors supporting PAE'
p436
ss(S'description'
p437
g346
NS'sparc32'
p438
tp439
(dp440
S'hardware'
p441
S'uniprocessor sparc32 (sun4m)'
p442
ss(S'description'
p443
g93
NS'octeon'
p444
tp445
(dp446
S'hardware'
p447
S'Octeon'
p448
sS'hardware-long'
p449
S'Cavium Networks Octeon'
p450
ss(S'image'
p451
g93
NS'loongson-3'
p452
tp453
(dp454
S'configs'
p455
(lp456
S'kernelarch-mips/config.loongson-3'
p457
ass(S'build'
p458
g398
tp459
(dp460
S'image-file'
p461
S'vmlinux'
p462
ss(S'image'
p463
g187
NS'686-pae'
p464
tp465
(dp466
S'configs'
p467
(lp468
S'kernelarch-x86/config-arch-32'
p469
aS'i386/config.686-pae'
p470
asS'recommends'
p471
S'libc6-i686'
p472
ss(S'image'
p473
g271
NS'powerpc64'
p474
tp475
(dp476
S'configs'
p477
(lp478
S'kernelarch-powerpc/config-arch-64'
p479
aS'kernelarch-powerpc/config-arch-64-be'
p480
ass(S'build'
p481
g324
tp482
(dp483
S'image-file'
p484
S'vmlinux'
p485
ss(S'description'
p486
g324
NS'parisc64-smp'
p487
tp488
(dp489
S'hardware'
p490
S'multiprocessor 64-bit PA-RISC'
p491
sS'hardware-long'
p492
S'HP PA-RISC 64-bit SMP systems with support for more than 4 GB RAM'
p493
ss(S'description'
p494
g39
NS'ixp4xx'
p495
tp496
(dp497
S'hardware'
p498
S'IXP4xx'
p499
sS'hardware-long'
p500
S'IXP4xx based systems (Linksys NSLU2, etc)'
p501
ss(S'base'
p502
g165
tp503
(dp504
S'kernel-arch'
p505
S'arm'
p506
sg139
(lp507
g141
ass(S'image'
p508
g76
NS'4kc-malta'
p509
tp510
(dp511
S'configs'
p512
(lp513
S'kernelarch-mips/config.4kc-malta'
p514
ass(S'description'
p515
g39
NS'kirkwood'
p516
tp517
(dp518
S'hardware'
p519
S'Marvell Kirkwood'
p520
sS'hardware-long'
p521
S'Marvell Kirkwood based systems (SheevaPlug, QNAP TS-119/TS-219, etc)'
p522
ss(S'build'
p523
g165
tp524
(dp525
S'image-file'
p526
S'arch/arm/boot/zImage'
p527
ss(S'image'
p528
g346
NS'sparc64-smp'
p529
tp530
(dp531
S'configs'
p532
(lp533
S'kernelarch-sparc/config-smp'
p534
ass(S'base'
p535
g346
tp536
(dp537
S'kernel-arch'
p538
S'sparc'
p539
sg139
(lp540
g141
ass(S'base'
p541
g398
tp542
(dp543
S'kernel-arch'
p544
S'powerpc'
p545
sg139
(lp546
g141
ass(S'description'
p547
g76
NS'octeon'
p548
tp549
(dp550
S'hardware'
p551
S'Octeon'
p552
sS'hardware-long'
p553
S'Cavium Networks Octeon'
p554
ss(g164
g375
g141
tp555
(dp556
g168
I01
sg169
(lp557
S's390x'
p558
ass(S'build'
p559
g76
tp560
(dp561
S'image-file'
p562
S'vmlinux'
p563
ss(S'image'
p564
g93
NS'loongson-2e'
p565
tp566
(dp567
S'configs'
p568
(lp569
S'kernelarch-mips/config.loongson-2e'
p570
ass(g164
g210
g141
tp571
(dp572
g168
I01
sg169
(lp573
S's390x'
p574
ass(S'base'
p575
g76
tp576
(dp577
S'kernel-arch'
p578
S'mips'
p579
sg139
(lp580
g141
ass(S'build'
p581
g5
tp582
(dp583
S'debug-info'
p584
I01
sS'image-file'
p585
S'arch/x86/boot/bzImage'
p586
ss(S'image'
p587
g93
NS'sb1-bcm91250a'
p588
tp589
(dp590
S'configs'
p591
(lp592
S'kernelarch-mips/config.sb1-bcm91250a'
p593
ass(S'description'
p594
g93
NS'5kc-malta'
p595
tp596
(dp597
S'hardware'
p598
S'MIPS Malta'
p599
sS'hardware-long'
p600
S'MIPS Malta boards'
p601
ss(S'build'
p602
g346
tp603
(dp604
S'image-file'
p605
S'arch/sparc/boot/zImage'
p606
ss(S'image'
p607
g84
tp608
(dp609
S'install-stem'
p610
S'vmlinux'
p611
ss(S'build'
p612
g119
tp613
(dp614
S'image-file'
p615
S'vmlinux'
p616
ss(S'build'
p617
g18
tp618
(dp619
S'debug-info'
p620
I01
sS'image-file'
p621
S'arch/arm64/boot/Image'
p622
ss(S'build'
p623
g84
tp624
(dp625
S'image-file'
p626
S'vmlinux'
p627
ss(S'base'
p628
S'mips64'
p629
tp630
(dp631
S'kernel-arch'
p632
S'mips'
p633
sg139
(lp634
g141
ass(S'base'
p635
g5
tp636
(dp637
S'kernel-arch'
p638
S'x86'
p639
sS'featuresets'
p640
(lp641
S'none'
p642
aS'rt'
p643
ass(S'base'
p644
g25
tp645
(dp646
S'kernel-arch'
p647
S'ia64'
p648
sg139
(lp649
g141
asS'compiler'
p650
S'gcc-4.6'
p651
ss(S'description'
p652
g157
NS'sparc64'
p653
tp654
(dp655
S'hardware'
p656
S'uniprocessor 64-bit UltraSPARC'
p657
ss(S'description'
p658
g76
NS'5kc-malta'
p659
tp660
(dp661
S'hardware'
p662
S'MIPS Malta (64-bit)'
p663
sS'hardware-long'
p664
S'MIPS Malta boards (64-bit)'
p665
ss(S'image'
p666
g375
NS's390x'
p667
tp668
(dp669
S'configs'
p670
(lp671
S'kernelarch-s390/config-arch-64'
p672
ass(S'description'
p673
g76
NS'r5k-ip32'
p674
tp675
(dp676
S'hardware'
p677
S'SGI IP32'
p678
sS'hardware-long'
p679
S'SGI IP32 systems (O2)'
p680
ss(S'image'
p681
g18
NS'arm64'
p682
tp683
(dp684
s(g164
g39
g141
tp685
(dp686
g168
I01
sg169
(lp687
S'kirkwood'
p688
aS'mv78xx0'
p689
aS'orion5x'
p690
aS'versatile'
p691
ass(S'abi'
p692
NS'rt'
p693
tp694
(dp695
S'ignore-changes'
p696
(lp697
S'*'
p698
ass(S'image'
p699
g187
NS'amd64'
p700
tp701
(dp702
S'configs'
p703
(lp704
S'kernelarch-x86/config-arch-64'
p705
asS'recommends'
p706
S'libc6-i686'
p707
ss(S'description'
p708
g84
NS'5kc-malta'
p709
tp710
(dp711
S'hardware'
p712
S'MIPS Malta (64-bit)'
p713
sS'hardware-long'
p714
S'MIPS Malta boards (64-bit)'
p715
ss(S'description'
p716
g102
NS'sh7785lcr'
p717
tp718
(dp719
S'hardware'
p720
S'sh7785lcr'
p721
sS'hardware-long'
p722
S'Renesas SH7785 reference board'
p723
ss(S'description'
p724
g187
tp725
(dp726
S'part-long-pae'
p727
S'This kernel requires PAE (Physical Address Extension).\nThis feature is supported by the Intel Pentium Pro/II/III/4/4M/D, Xeon,\nCore and Atom; AMD Geode NX, Athlon (K7), Duron, Opteron, Sempron,\nTurion or Phenom; Transmeta Efficeon; VIA C7; and some other processors.'
p728
ss(S'description'
p729
g629
NS'5kc-malta'
p730
tp731
(dp732
S'hardware'
p733
S'MIPS Malta'
p734
sS'hardware-long'
p735
S'MIPS Malta boards'
p736
ss(S'image'
p737
g629
NS'sb1-bcm91250a'
p738
tp739
(dp740
S'configs'
p741
(lp742
S'kernelarch-mips/config.sb1-bcm91250a'
p743
ass(S'image'
p744
g165
tp745
(dp746
S'suggests'
p747
S'fdutils'
p748
sS'configs'
p749
(lp750
S'kernelarch-arm/config'
p751
aS'armhf/config'
p752
asS'install-stem'
p753
S'vmlinuz'
p754
ss(S'xen'
p755
g5
g32
S'amd64'
p756
tp757
(dp758
S'flavours'
p759
(lp760
S'amd64'
p761
ass(S'image'
p762
g39
tp763
(dp764
S'suggests'
p765
S'fdutils'
p766
sS'configs'
p767
(lp768
S'kernelarch-arm/config'
p769
aS'armel/config'
p770
asS'install-stem'
p771
S'vmlinuz'
p772
ss(S'image'
p773
g375
tp774
(dp775
S'install-stem'
p776
S'vmlinuz'
p777
sS'configs'
p778
(lp779
sS'bootloaders'
p780
(lp781
S's390-tools'
p782
ass(S'abi'
p783
g5
tp784
(dp785
S'ignore-changes'
p786
(lp787
S'module:arch/x86/kvm/*'
p788
ass(S'image'
p789
g324
tp790
(dp791
S'suggests'
p792
S'palo'
p793
sS'install-stem'
p794
S'vmlinux'
p795
ss(S'image'
p796
g119
NS'powerpc64'
p797
tp798
(dp799
S'configs'
p800
(lp801
S'kernelarch-powerpc/config-arch-64'
p802
aS'kernelarch-powerpc/config-arch-64-be'
p803
ass(g164
g629
g141
tp804
(dp805
g168
I01
sg169
(lp806
S'sb1-bcm91250a'
p807
aS'octeon'
p808
ass(S'relations'
p809
g324
tp810
(dp811
S'gcc-4.8'
p812
S'gcc-4.8, binutils-hppa64, gcc-4.8-hppa64'
p813
ss(S'image'
p814
g84
NS'loongson-2e'
p815
tp816
(dp817
S'configs'
p818
(lp819
S'kernelarch-mips/config.loongson-2e'
p820
ass(g164
g324
g141
tp821
(dp822
g168
I01
sg169
(lp823
S'parisc'
p824
aS'parisc64-smp'
p825
ass(S'image'
p826
g134
tp827
(dp828
S'suggests'
p829
S'aboot, fdutils'
p830
sS'install-stem'
p831
S'vmlinuz'
p832
ss(S'base'
p833
g157
tp834
(dp835
S'kernel-arch'
p836
S'sparc'
p837
sg139
(lp838
g141
ass(S'image'
p839
g5
NS'amd64'
p840
tp841
(dp842
S'configs'
p843
(lp844
S'kernelarch-x86/config-arch-64'
p845
ass(S'base'
p846
S'or1k'
p847
tp848
(dp849
S'kernel-arch'
p850
S'openrisc'
p851
sS'featuresets'
p852
(lp853
ss(S'description'
p854
g134
NS'alpha-generic'
p855
tp856
(dp857
S'hardware'
p858
S'Alpha'
p859
sS'hardware-long'
p860
S'DEC Alpha systems with extended kernel start address (Wildfire, Titan, Marvel)'
p861
ss(g164
g271
g141
tp862
(dp863
g168
I01
sg169
(lp864
S'powerpc64'
p865
ass(S'base'
p866
g210
tp867
(dp868
S'kernel-arch'
p869
S's390'
p870
sg139
(lp871
g141
ass(S'base'
p872
g375
tp873
(dp874
S'kernel-arch'
p875
S's390'
p876
sg139
(lp877
g141
ass(S'description'
p878
g93
NS'sb1-bcm91250a'
p879
tp880
(dp881
S'hardware'
p882
S'BCM91250A'
p883
sS'hardware-long'
p884
S'Broadcom BCM91250A systems (aka SWARM)'
p885
ss(S'image'
p886
g119
NS'powerpc-smp'
p887
tp888
(dp889
S'configs'
p890
(lp891
S'powerpc/config.powerpc'
p892
aS'powerpc/config.powerpc-smp'
p893
ass(S'image'
p894
g271
tp895
(dp896
S'suggests'
p897
S'mkvmlinuz'
p898
sS'configs'
p899
(lp900
sS'install-stem'
p901
S'vmlinux'
p902
ss(S'image'
p903
g76
tp904
(dp905
S'install-stem'
p906
S'vmlinux'
p907
ss(S'image'
p908
g187
tp909
(dp910
S'install-stem'
p911
S'vmlinuz'
p912
sS'configs'
p913
(lp914
sS'bootloaders'
p915
(lp916
S'grub-pc'
p917
aS'extlinux'
p918
aS'lilo'
p919
ass(g164
g346
g141
tp920
(dp921
g168
I01
sg169
(lp922
S'sparc64'
p923
aS'sparc64-smp'
p924
ass(S'relations'
p925
g119
tp926
(dp927
S'gcc-4.8'
p928
S'gcc-4.8 (>= 4.8.2-21)'
p929
ss(g164
g76
g141
tp930
(dp931
g168
I01
sg169
(lp932
S'r4k-ip22'
p933
aS'r5k-ip32'
p934
aS'sb1-bcm91250a'
p935
aS'4kc-malta'
p936
aS'5kc-malta'
p937
aS'octeon'
p938
ass(S'description'
p939
g187
g285
S'686-pae'
p940
tp941
(dp942
S'parts'
p943
(lp944
S'xen'
p945
ass(S'base'
p946
S'x32'
p947
tp948
(dp949
S'kernel-arch'
p950
S'x86'
p951
sS'featuresets'
p952
(lp953
ss(S'base'
p954
g271
tp955
(dp956
S'kernel-arch'
p957
S'powerpc'
p958
sg139
(lp959
g141
ass(S'description'
p960
g629
NS'sb1-bcm91250a'
p961
tp962
(dp963
S'hardware'
p964
S'BCM91250A'
p965
sS'hardware-long'
p966
S'Broadcom BCM91250A systems (aka SWARM)'
p967
ss(S'image'
p968
g39
NS'orion5x'
p969
tp970
(dp971
S'check-size'
p972
S'1572792'
p973
sS'configs'
p974
(lp975
S'armel/config-reduced'
p976
aS'armel/config.orion5x'
p977
asS'recommends'
p978
S'uboot-mkimage'
p979
ss(S'description'
p980
g157
NS'sparc64-smp'
p981
tp982
(dp983
S'hardware'
p984
S'multiprocessor 64-bit UltraSPARC'
p985
ss(g164
g134
g141
tp986
(dp987
g168
I01
sg169
(lp988
S'alpha-generic'
p989
aS'alpha-smp'
p990
aS'alpha-legacy'
p991
ass(S'build'
p992
g134
tp993
(dp994
S'image-file'
p995
S'arch/alpha/boot/vmlinux.gz'
p996
ss(S'image'
p997
g346
NS'sparc32'
p998
tp999
(dp1000
S'image-postproc'
p1001
S'sparc32-image-postproc'
p1002
ss(S'image'
p1003
g76
NS'sb1-bcm91250a'
p1004
tp1005
(dp1006
S'configs'
p1007
(lp1008
S'kernelarch-mips/config.sb1-bcm91250a'
p1009
ass(g164
g102
g141
tp1010
(dp1011
g168
I01
sg169
(lp1012
S'sh7751r'
p1013
aS'sh7785lcr'
p1014
ass(g164
g25
g141
tp1015
(dp1016
g168
I01
sg169
(lp1017
S'itanium'
p1018
aS'mckinley'
p1019
ass(S'build'
p1020
g102
tp1021
(dp1022
S'image-file'
p1023
S'arch/sh/boot/zImage'
p1024
ss(S'image'
p1025
S'm68k'
p1026
tp1027
(dp1028
S'suggests'
p1029
S'vmelilo, fdutils'
p1030
sS'install-stem'
p1031
S'vmlinuz'
p1032
ss(S'description'
p1033
Ng693
tp1034
(dp1035
S'part-long-rt'
p1036
S'This kernel includes the PREEMPT_RT realtime patch set.'
p1037
sS'parts'
p1038
(lp1039
S'rt'
p1040
asS'part-short-rt'
p1041
S'PREEMPT_RT'
p1042
ss(S'base'
p1043
g18
S'none'
p1044
tp1045
(dp1046
S'flavours'
p1047
(lp1048
S'arm64'
p1049
ass(S'build'
p1050
g629
tp1051
(dp1052
S'image-file'
p1053
S'vmlinux'
p1054
ss(S'image'
p1055
g93
NS'loongson-2f'
p1056
tp1057
(dp1058
S'configs'
p1059
(lp1060
S'kernelarch-mips/config.loongson-2f'
p1061
asS'recommends'
p1062
S'libc6-loongson2f'
p1063
ss(S'description'
p1064
g76
NS'r4k-ip22'
p1065
tp1066
(dp1067
S'hardware'
p1068
S'SGI IP22'
p1069
sS'hardware-long'
p1070
S'SGI IP22 systems (Indy, Indigo2)'
p1071
ss(S'build'
p1072
g25
tp1073
(dp1074
S'image-file'
p1075
S'vmlinux.gz'
p1076
ss(S'description'
p1077
g134
NS'alpha-legacy'
p1078
tp1079
(dp1080
S'hardware'
p1081
S'Alpha Legacy'
p1082
sS'hardware-long'
p1083
S'DEC Alpha systems with legacy kernel start address'
p1084
ss(S'description'
p1085
g200
NS'powerpc64le'
p1086
tp1087
(dp1088
S'hardware'
p1089
S'Little-endian 64-bit PowerPC'
p1090
ss(S'description'
p1091
g346
NS'sparc64-smp'
p1092
tp1093
(dp1094
S'hardware'
p1095
S'multiprocessor 64-bit UltraSPARC'
p1096
ss(S'description'
p1097
g119
NS'powerpc64'
p1098
tp1099
(dp1100
S'hardware'
p1101
S'64-bit PowerPC'
p1102
ss(S'image'
p1103
g76
NS'r5k-ip32'
p1104
tp1105
(dp1106
S'configs'
p1107
(lp1108
S'kernelarch-mips/config.r5k-ip32'
p1109
ass(S'build'
p1110
g210
tp1111
(dp1112
S'image-file'
p1113
S'arch/s390/boot/image'
p1114
ss(g164
g93
g141
tp1115
(dp1116
g168
I01
sg169
(lp1117
S'sb1-bcm91250a'
p1118
aS'loongson-2e'
p1119
aS'loongson-2f'
p1120
aS'loongson-3'
p1121
aS'octeon'
p1122
ass(S'build'
p1123
g375
NS's390x'
p1124
tp1125
(dp1126
S'debug-info'
p1127
I01
ss(S'build'
p1128
g187
NS'686-pae'
p1129
tp1130
(dp1131
S'debug-info'
p1132
I01
ss(S'image'
p1133
g346
tp1134
(dp1135
S'suggests'
p1136
S'silo, fdutils'
p1137
sS'configs'
p1138
(lp1139
sS'install-stem'
p1140
S'vmlinuz'
p1141
ss(S'description'
p1142
tp1143
(dp1144
S'part-long-up'
p1145
S'This kernel is not suitable for SMP (multi-processor,\nmulti-core or hyper-threaded) systems.'
p1146
sS'part-long-xen'
p1147
S'This kernel also runs on a Xen hypervisor.\nIt supports both privileged (dom0) and unprivileged (domU) operation.'
p1148
ss(S'build'
p1149
g157
tp1150
(dp1151
S'image-file'
p1152
S'arch/sparc/boot/zImage'
p1153
ss(S'relations'
p1154
g165
tp1155
(dp1156
S'headers%gcc-4.8'
p1157
S'linux-compiler-gcc-4.8-arm'
p1158
ss(S'image'
p1159
g76
NS'r4k-ip22'
p1160
tp1161
(dp1162
S'configs'
p1163
(lp1164
S'kernelarch-mips/config.r4k-ip22'
p1165
ass(S'build'
p1166
g93
tp1167
(dp1168
S'image-file'
p1169
S'vmlinux'
p1170
ss(S'image'
p1171
g84
NS'4kc-malta'
p1172
tp1173
(dp1174
S'configs'
p1175
(lp1176
S'kernelarch-mips/config.4kc-malta'
p1177
ass(S'description'
p1178
g210
NS's390x'
p1179
tp1180
(dp1181
S'hardware'
p1182
S'IBM zSeries'
p1183
ss(S'image'
p1184
g157
tp1185
(dp1186
S'suggests'
p1187
S'silo, fdutils'
p1188
sS'configs'
p1189
(lp1190
sS'install-stem'
p1191
S'vmlinuz'
p1192
ss(S'base'
p1193
g324
NS'parisc64-smp'
p1194
tp1195
(dp1196
S'override-host-type'
p1197
S'hppa64-linux-gnu'
p1198
sS'cflags'
p1199
S'-fno-cse-follow-jumps'
p1200
ss(S'relations'
p1201
g210
tp1202
(dp1203
S'headers%gcc-4.8'
p1204
S'linux-compiler-gcc-4.8-s390'
p1205
ss(S'description'
p1206
g84
NS'loongson-3'
p1207
tp1208
(dp1209
S'hardware'
p1210
S'Loongson 3A/3B'
p1211
sS'hardware-long'
p1212
S'Loongson 3A or 3B based systems (e.g. from Loongson or Lemote)'
p1213
ss(S'base'
p1214
g119
tp1215
(dp1216
S'kernel-arch'
p1217
S'powerpc'
p1218
sg139
(lp1219
g141
ass(S'description'
p1220
g76
NS'sb1-bcm91250a'
p1221
tp1222
(dp1223
S'hardware'
p1224
S'BCM91250A'
p1225
sS'hardware-long'
p1226
S'Broadcom BCM91250A systems (aka SWARM)'
p1227
ss(S'image'
p1228
g93
NS'octeon'
p1229
tp1230
(dp1231
S'configs'
p1232
(lp1233
S'kernelarch-mips/config.octeon'
p1234
ass(S'description'
p1235
g629
NS'octeon'
p1236
tp1237
(dp1238
S'hardware'
p1239
S'Octeon'
p1240
sS'hardware-long'
p1241
S'Cavium Networks Octeon'
p1242
ss(S'base'
p1243
NS'rt'
p1244
tp1245
(dp1246
S'enabled'
p1247
I01
ss(S'description'
p1248
g375
NS's390x'
p1249
tp1250
(dp1251
S'hardware'
p1252
S'IBM zSeries'
p1253
ss(S'image'
p1254
g629
tp1255
(dp1256
S'install-stem'
p1257
S'vmlinux'
p1258
ss(S'base'
p1259
g39
tp1260
(dp1261
S'kernel-arch'
p1262
S'arm'
p1263
sg139
(lp1264
g141
ass(S'image'
p1265
g398
tp1266
(dp1267
S'suggests'
p1268
S'mkvmlinuz'
p1269
sS'install-stem'
p1270
S'vmlinux'
p1271
ss(S'description'
p1272
g271
NS'powerpc64'
p1273
tp1274
(dp1275
S'hardware'
p1276
S'64-bit PowerPC'
p1277
ss(S'description'
p1278
g84
NS'4kc-malta'
p1279
tp1280
(dp1281
S'hardware'
p1282
S'MIPS Malta'
p1283
sS'hardware-long'
p1284
S'MIPS Malta boards'
p1285
ss(S'abi'
p1286
tp1287
(dp1288
S'abiname'
p1289
S'2'
p1290
sS'ignore-changes'
p1291
(lp1292
ss(S'image'
p1293
g346
NS'sparc64'
p1294
tp1295
(dp1296
S'configs'
p1297
(lp1298
S'kernelarch-sparc/config-up'
p1299
ass(S'relations'
p1300
g271
tp1301
(dp1302
S'gcc-4.8'
p1303
S'gcc-4.8 (>= 4.8.2-21)'
p1304
ss(S'image'
p1305
g93
NS'5kc-malta'
p1306
tp1307
(dp1308
S'configs'
p1309
(lp1310
S'kernelarch-mips/config.5kc-malta'
p1311
ass(S'build'
p1312
g210
NS's390x'
p1313
tp1314
(dp1315
S'debug-info'
p1316
I01
ss(S'description'
p1317
g165
NS'armmp'
p1318
tp1319
(dp1320
S'hardware'
p1321
S'ARMv7 multiplatform compatible SoCs'
p1322
sS'hardware-long'
p1323
S'ARMv7 multiplatform kernel for Marvell Armada 370/xp, Freescale iMX5x/iMX6'
p1324
ss(g164
g398
g141
tp1325
(dp1326
g168
I01
sg169
(lp1327
S'powerpcspe'
p1328
ass(g164
g1026
g141
tp1329
(dp1330
g168
I01
sg169
(lp1331
S'm68k'
p1332
ass(S'abi'
p1333
g187
tp1334
(dp1335
S'ignore-changes'
p1336
(lp1337
S'module:arch/x86/kvm/*'
p1338
ass(S'base'
p1339
g187
g285
tp1340
(dp1341
S'flavours'
p1342
(lp1343
S'486'
p1344
aS'686-pae'
p1345
aS'amd64'
p1346
ass(S'base'
p1347
tp1348
(dp1349
S'arches'
p1350
(lp1351
S'alpha'
p1352
aS'amd64'
p1353
aS'arm64'
p1354
aS'armel'
p1355
aS'armhf'
p1356
aS'hppa'
p1357
aS'i386'
p1358
aS'ia64'
p1359
aS'm68k'
p1360
aS'mips'
p1361
aS'mipsel'
p1362
aS'mips64'
p1363
aS'mips64el'
p1364
aS'or1k'
p1365
aS'powerpc'
p1366
aS'powerpcspe'
p1367
aS'ppc64'
p1368
aS'ppc64el'
p1369
aS's390'
p1370
aS's390x'
p1371
aS'sh4'
p1372
aS'sparc'
p1373
aS'sparc64'
p1374
aS'x32'
p1375
asS'featuresets'
p1376
(lp1377
S'none'
p1378
aS'rt'
p1379
asS'compiler'
p1380
S'gcc-4.8'
p1381
ss(S'build'
p1382
g1026
tp1383
(dp1384
S'image-file'
p1385
S'vmlinux.gz'
p1386
ss(S'build'
p1387
g39
tp1388
(dp1389
S'image-file'
p1390
S'arch/arm/boot/zImage'
p1391
ss(g164
g119
g141
tp1392
(dp1393
g168
I01
sg169
(lp1394
S'powerpc'
p1395
aS'powerpc-smp'
p1396
aS'powerpc64'
p1397
ass(S'image'
p1398
g187
NS'486'
p1399
tp1400
(dp1401
S'configs'
p1402
(lp1403
S'kernelarch-x86/config-arch-32'
p1404
aS'i386/config.486'
p1405
ass(S'image'
p1406
g93
tp1407
(dp1408
S'install-stem'
p1409
S'vmlinux'
p1410
ss(S'description'
p1411
g5
NS'amd64'
p1412
tp1413
(dp1414
S'hardware'
p1415
S'64-bit PCs'
p1416
sS'hardware-long'
p1417
S'PCs with AMD64, Intel 64 or VIA Nano processors'
p1418
ss(S'image'
p1419
g629
NS'octeon'
p1420
tp1421
(dp1422
S'configs'
p1423
(lp1424
S'kernelarch-mips/config.octeon'
p1425
ass(S'base'
p1426
g200
tp1427
(dp1428
S'kernel-arch'
p1429
S'powerpc'
p1430
sg139
(lp1431
g141
ass(S'base'
p1432
g93
tp1433
(dp1434
S'kernel-arch'
p1435
S'mips'
p1436
sg139
(lp1437
g141
ass(S'description'
p1438
g39
NS'mv78xx0'
p1439
tp1440
(dp1441
S'hardware'
p1442
S'Marvell 78xx0'
p1443
sS'hardware-long'
p1444
S'Marvell DB-78xx0-BP Development Board'
p1445
ss(S'base'
p1446
g1026
tp1447
(dp1448
S'kernel-arch'
p1449
S'm68k'
p1450
sg139
(lp1451
g141
asS'cflags'
p1452
S'-ffreestanding'
p1453
sS'compiler'
p1454
S'gcc-4.8'
p1455
ss(S'image'
p1456
g76
NS'5kc-malta'
p1457
tp1458
(dp1459
S'configs'
p1460
(lp1461
S'kernelarch-mips/config.5kc-malta'
p1462
ass(S'image'
p1463
tp1464
(dp1465
S'initramfs-generators'
p1466
(lp1467
S'initramfs-tools'
p1468
aS'initramfs-fallback'
p1469
asS'type'
p1470
S'plain'
p1471
ss(S'image'
p1472
g157
NS'sparc64'
p1473
tp1474
(dp1475
S'configs'
p1476
(lp1477
S'kernelarch-sparc/config-up'
p1478
ass(S'description'
p1479
g134
NS'alpha-smp'
p1480
tp1481
(dp1482
S'hardware'
p1483
S'Alpha SMP'
p1484
sS'hardware-long'
p1485
S'DEC Alpha SMP systems with extended kernel start address (Wildfire, Titan, Marvel)'
p1486
ss(g164
g157
g141
tp1487
(dp1488
g168
I01
sg169
(lp1489
S'sparc64'
p1490
aS'sparc64-smp'
p1491
ass(S'description'
p1492
g187
NS'amd64'
p1493
tp1494
(dp1495
S'hardware'
p1496
S'64-bit PCs'
p1497
sS'parts'
p1498
(lp1499
S'xen'
p1500
asS'hardware-long'
p1501
S'PCs with AMD64, Intel 64 or VIA Nano processors'
p1502
ss(S'description'
p1503
g84
NS'loongson-2e'
p1504
tp1505
(dp1506
S'hardware'
p1507
S'Loongson 2E'
p1508
sS'hardware-long'
p1509
S'Lemote Loongson 2E systems'
p1510
ss(S'description'
p1511
g165
NS'armmp-lpae'
p1512
tp1513
(dp1514
S'hardware'
p1515
S'ARMv7 multiplatform compatible SoCs supporting LPAE'
p1516
sS'hardware-long'
p1517
S'ARMv7 multiplatform kernel supporting LPAE'
p1518
ss(S'image'
p1519
g629
NS'5kc-malta'
p1520
tp1521
(dp1522
S'configs'
p1523
(lp1524
S'kernelarch-mips/config.5kc-malta'
p1525
ass(S'base'
p1526
g102
tp1527
(dp1528
S'kernel-arch'
p1529
S'sh'
p1530
sg139
(lp1531
g141
asS'compiler'
p1532
S'gcc-4.7'
p1533
ss(S'image'
p1534
g200
NS'powerpc64le'
p1535
tp1536
(dp1537
S'configs'
p1538
(lp1539
S'kernelarch-powerpc/config-arch-64'
p1540
aS'kernelarch-powerpc/config-arch-64-le'
p1541
ass(S'image'
p1542
g210
tp1543
(dp1544
S'install-stem'
p1545
S'vmlinuz'
p1546
sS'configs'
p1547
(lp1548
sS'bootloaders'
p1549
(lp1550
S's390-tools'
p1551
ass(S'image'
p1552
g18
tp1553
(dp1554
S'install-stem'
p1555
S'vmlinuz'
p1556
ss(S'description'
p1557
g119
NS'powerpc'
p1558
tp1559
(dp1560
S'hardware'
p1561
S'uniprocessor 32-bit PowerPC'
p1562
ss(S'build'
p1563
g375
tp1564
(dp1565
S'image-file'
p1566
S'arch/s390/boot/image'
p1567
ss(S'description'
p1568
g1026
NS'm68k'
p1569
tp1570
(dp1571
S'hardware'
p1572
S'Motorola MC68020+ family'
p1573
ss(S'build'
p1574
g187
tp1575
(dp1576
S'image-file'
p1577
S'arch/x86/boot/bzImage'
p1578
ss(g164
g200
g141
tp1579
(dp1580
g168
I01
sg169
(lp1581
S'powerpc64le'
p1582
asstp1583
Rp1584
.