cdebian_linux.config
ConfigCore
p0
(tRp1
(Vbase
p2
tp3
(dp4
Varches
p5
(lp6
Valpha
p7
aVamd64
p8
aVarm64
p9
aVarmel
p10
aVarmhf
p11
aVhppa
p12
aVi386
p13
aVia64
p14
aVm68k
p15
aVmips
p16
aVmips64
p17
aVmips64el
p18
aVmips64r6el
p19
aVmipsel
p20
aVpowerpc
p21
aVppc64
p22
aVppc64el
p23
aVriscv64
p24
aVs390x
p25
aVsh4
p26
aVsparc64
p27
aVx32
p28
asVcompiler
p29
Vgcc-12
p30
sVfeaturesets
p31
(lp32
Vnone
p33
aVrt
p34
ass(Vbuild
p35
tp36
(dp37
Vsigned-code
p38
I00
ss(Vbase
p39
NVrt
p40
tp41
(dp42
Venabled
p43
I00
ss(Vdescription
p44
tp45
(dp46
Vpart-long-up
p47
VThis kernel is not suitable for SMP (multi-processor, multi-core or hyper-threaded) systems.
p48
ss(Vimage
p49
tp50
(dp51
Vdepends
p52
(lp53
Vinitramfs-tools (>= 0.120+deb8u2) | linux-initramfs-tool
p54
asVbreaks
p55
(lp56
Vfwupdate (<< 12-7)
p57
aVwireless-regdb (<< 2019.06.03-1~)
p58
asVrecommends
p59
(lp60
Vapparmor
p61
ass(Vbase
p62
Valpha
p63
tp64
(dp65
Vdefault-flavour
p66
Valpha-smp
p67
sVkernel-arch
p68
Valpha
p69
sVfeaturesets
p70
(lp71
Vnone
p72
ass(Vbuild
p73
g63
tp74
(dp75
Vimage-file
p76
Varch/alpha/boot/vmlinux.gz
p77
ss(Vimage
p78
g63
tp79
(dp80
Vsuggests
p81
(lp82
Vaboot
p83
aVfdutils
p84
asVinstall-stem
p85
Vvmlinuz
p86
ss(Vdescription
p87
g63
NValpha-generic
p88
tp89
(dp90
Vhardware
p91
VAlpha
p92
sVhardware-long
p93
VDEC Alpha systems with extended kernel start address (Wildfire, Titan, Marvel)
p94
ss(Vpackages
p95
g63
NValpha-generic
p96
tp97
(dp98
Vinstaller
p99
I01
ss(Vdescription
p100
g63
NValpha-smp
p101
tp102
(dp103
Vhardware
p104
VAlpha SMP
p105
sVhardware-long
p106
VDEC Alpha SMP systems with extended kernel start address (Wildfire, Titan, Marvel)
p107
ss(Vbase
p108
g63
g72
tp109
(dp110
Vflavours
p111
(lp112
Valpha-generic
p113
aValpha-smp
p114
asVimplicit-flavour
p115
I01
ss(Vbase
p116
Vamd64
p117
tp118
(dp119
Vfeaturesets
p120
(lp121
Vnone
p122
asVkernel-arch
p123
Vx86
p124
ss(Vbuild
p125
g117
tp126
(dp127
Vimage-file
p128
Varch/x86/boot/bzImage
p129
sVsigned-code
p130
I00
sVvdso
p131
I01
ss(Vimage
p132
g117
tp133
(dp134
Vsuggests
p135
(lp136
Vgrub-pc | grub-efi-amd64 | extlinux
p137
asVinstall-stem
p138
Vvmlinuz
p139
ss(Vdescription
p140
g117
NVamd64
p141
tp142
(dp143
Vhardware
p144
V64-bit PCs
p145
sVhardware-long
p146
VPCs with AMD64, Intel 64 or VIA Nano processors
p147
ss(Vbase
p148
g117
Vnone
p149
tp150
(dp151
Vflavours
p152
(lp153
Vamd64
p154
asVdefault-flavour
p155
Vamd64
p156
sVquick-flavour
p157
Vcloud-amd64
p158
ss(Vpackages
p159
g117
g149
Vamd64
p160
tp161
(dp162
Vinstaller
p163
I01
ss(Vimage
p164
g117
g149
Vamd64
p165
tp166
(dp167
Vconfigs
p168
(lp169
Vconfig.cloud
p170
aVamd64/config.cloud-amd64
p171
aVamd64/config.pexip-amd64
p172
ass(Vbase
p173
Varm64
p174
tp175
(dp176
Vcompat-deb-arch
p177
Varmhf
p178
sVcompat-gnu-type
p179
Varm-linux-gnueabihf
p180
sVkernel-arch
p181
Varm64
p182
sVfeaturesets
p183
(lp184
Vnone
p185
ass(Vbuild
p186
g174
tp187
(dp188
Vimage-file
p189
Varch/arm64/boot/Image
p190
sVsigned-code
p191
I00
sVvdso
p192
I01
ss(Vimage
p193
g174
tp194
(dp195
Vinstall-stem
p196
Vvmlinuz
p197
ss(Vdescription
p198
g174
NVarm64
p199
tp200
(dp201
Vhardware
p202
V64-bit ARMv8 machines
p203
ss(Vdescription
p204
g174
NVcloud-arm64
p205
tp206
(dp207
Vhardware
p208
Varm64 cloud
p209
sVhardware-long
p210
Vcloud platforms supporting arm64 virtual machines
p211
ss(Vimage
p212
g174
NVarm64
p213
tp214
(dp215
s(Vbase
p216
g174
Vnone
p217
tp218
(dp219
Vflavours
p220
(lp221
Varm64
p222
asVdefault-flavour
p223
Varm64
p224
sVquick-flavour
p225
Vcloud-arm64
p226
ss(Vpackages
p227
g174
g217
Varm64
p228
tp229
(dp230
Vinstaller
p231
I01
ss(Vimage
p232
g174
g217
Varm64
p233
tp234
(dp235
Vconfigs
p236
(lp237
Vconfig.cloud
p238
aVarm64/config.cloud-arm64
p239
aVarm64/config.pexip-arm64
p240
ass(Vbase
p241
Varmel
p242
tp243
(dp244
Vkernel-arch
p245
Varm
p246
sg70
(lp247
g72
ass(Vbuild
p248
g242
tp249
(dp250
Vimage-file
p251
Varch/arm/boot/zImage
p252
sVuncompressed-image-file
p253
Varch/arm/boot/Image
p254
ss(Vimage
p255
g242
tp256
(dp257
Vinstall-stem
p258
Vvmlinuz
p259
ss(Vdescription
p260
g242
NVrpi
p261
tp262
(dp263
Vhardware
p264
VRaspberry Pi Zero, Zero W and 1
p265
sVhardware-long
p266
VRaspberry Pi Zero, Zero W and 1 based systems
p267
ss(g108
g242
g72
tp268
(dp269
g111
(lp270
Vrpi
p271
asg115
I01
ss(Vbase
p272
Varmhf
p273
tp274
(dp275
Vfeaturesets
p276
(lp277
Vnone
p278
aVrt
p279
asVkernel-arch
p280
Varm
p281
ss(Vbuild
p282
g273
tp283
(dp284
Vimage-file
p285
Varch/arm/boot/zImage
p286
sVvdso
p287
I01
ss(Vimage
p288
g273
tp289
(dp290
Vinstall-stem
p291
Vvmlinuz
p292
ss(Vdescription
p293
g273
NVarmmp
p294
tp295
(dp296
Vhardware
p297
VARMv7 multiplatform compatible SoCs
p298
sVhardware-long
p299
VARMv7 multiplatform kernel. See https://wiki.debian.org/DebianKernel/ARMMP for details of supported platforms
p300
ss(Vdescription
p301
g273
NVarmmp-lpae
p302
tp303
(dp304
Vhardware
p305
VARMv7 multiplatform compatible SoCs supporting LPAE
p306
sVhardware-long
p307
VARMv7 multiplatform kernel supporting LPAE. See https://wiki.debian.org/DebianKernel/ARMMP for details of supported platforms.
p308
ss(Vbase
p309
g273
Vnone
p310
tp311
(dp312
Vflavours
p313
(lp314
Varmmp
p315
aVarmmp-lpae
p316
asVdefault-flavour
p317
Varmmp
p318
ss(Vpackages
p319
g273
g310
Varmmp
p320
tp321
(dp322
Vinstaller
p323
I01
ss(Vbase
p324
g273
Vrt
p325
tp326
(dp327
Vflavours
p328
(lp329
Varmmp
p330
ass(Vbase
p331
Vhppa
p332
tp333
(dp334
Vdefault-flavour
p335
Vparisc
p336
sVkernel-arch
p337
Vparisc
p338
sg70
(lp339
g72
ass(Vbuild
p340
g332
tp341
(dp342
Vimage-file
p343
Varch/parisc/boot/bzImage
p344
ss(Vimage
p345
g332
tp346
(dp347
Vsuggests
p348
(lp349
Vpalo
p350
asVinstall-stem
p351
Vvmlinuz
p352
ss(Vdescription
p353
g332
NVparisc
p354
tp355
(dp356
Vhardware
p357
V32-bit PA-RISC
p358
sVhardware-long
p359
VHP PA-RISC 32-bit systems with max 4 GB RAM
p360
ss(Vpackages
p361
g332
NVparisc
p362
tp363
(dp364
Vinstaller
p365
I01
ss(Vbase
p366
g332
NVparisc64
p367
tp368
(dp369
Vcflags
p370
V-fno-cse-follow-jumps
p371
sVkernel-deb-arch
p372
Vundefined
p373
sVkernel-gnu-type
p374
Vhppa64-linux-gnu
p375
sVcompat-deb-arch
p376
Vhppa
p377
sVcompat-gnu-type
p378
Vhppa-linux-gnu
p379
ss(Vdescription
p380
g332
NVparisc64
p381
tp382
(dp383
Vhardware
p384
V64-bit PA-RISC
p385
sVhardware-long
p386
VHP PA-RISC 64-bit systems with support for more than 4 GB RAM
p387
ss(Vpackages
p388
g332
NVparisc64
p389
tp390
(dp391
Vinstaller
p392
I01
ss(g108
g332
g72
tp393
(dp394
g111
(lp395
Vparisc
p396
aVparisc64
p397
asg115
I01
ss(Vbase
p398
Vi386
p399
tp400
(dp401
Vfeaturesets
p402
(lp403
Vnone
p404
aVrt
p405
asVkernel-arch
p406
Vx86
p407
ss(Vbuild
p408
g399
tp409
(dp410
Vimage-file
p411
Varch/x86/boot/bzImage
p412
sVvdso
p413
I01
ss(Vdescription
p414
g399
tp415
(dp416
Vpart-long-pae
p417
VThis kernel requires PAE (Physical Address Extension). This feature is supported by the Intel Pentium Pro/II/III/4/4M/D, Xeon, Core and Atom; AMD Geode NX, Athlon (K7), Duron, Opteron, Sempron, Turion or Phenom; Transmeta Efficeon; VIA C7; and some other processors.
p418
ss(Vimage
p419
g399
tp420
(dp421
Vsuggests
p422
(lp423
Vgrub-pc | grub-efi-ia32 | extlinux
p424
asVinstall-stem
p425
Vvmlinuz
p426
ss(Vdescription
p427
g399
NV686
p428
tp429
(dp430
Vhardware
p431
Volder PCs
p432
sVhardware-long
p433
VPCs with one or more processors not supporting PAE
p434
ss(Vdescription
p435
g399
NV686-pae
p436
tp437
(dp438
Vhardware
p439
Vmodern PCs
p440
sVhardware-long
p441
VPCs with one or more processors supporting PAE
p442
sVparts
p443
(lp444
Vpae
p445
ass(Vbase
p446
g399
Vnone
p447
tp448
(dp449
Vflavours
p450
(lp451
V686
p452
aV686-pae
p453
asVdefault-flavour
p454
V686-pae
p455
ss(Vpackages
p456
g399
g447
V686
p457
tp458
(dp459
Vinstaller
p460
I01
ss(Vpackages
p461
g399
g447
V686-pae
p462
tp463
(dp464
Vinstaller
p465
I01
ss(Vbase
p466
g399
Vrt
p467
tp468
(dp469
Vflavours
p470
(lp471
V686-pae
p472
ass(Vbase
p473
Via64
p474
tp475
(dp476
Vdefault-flavour
p477
Vitanium
p478
sVkernel-arch
p479
Via64
p480
sVcompiler
p481
Vgcc-12
p482
sg70
(lp483
g72
ass(Vbuild
p484
g474
tp485
(dp486
Vimage-file
p487
Vvmlinux.gz
p488
ss(Vimage
p489
g474
tp490
(dp491
Vsuggests
p492
(lp493
Vgrub-efi-ia64
p494
asVinstall-stem
p495
Vvmlinuz
p496
ss(Vdescription
p497
g474
NVitanium
p498
tp499
(dp500
Vhardware
p501
VItanium (Merced)
p502
sVhardware-long
p503
Vsystems with original Itanium (Merced) processors
p504
ss(Vpackages
p505
g474
NVitanium
p506
tp507
(dp508
Vinstaller
p509
I01
ss(Vdescription
p510
g474
NVmckinley
p511
tp512
(dp513
Vhardware
p514
VItanium 2+
p515
sVhardware-long
p516
Vsystems with Itanium 2 or 9300/9500/9700-series processors
p517
ss(g108
g474
g72
tp518
(dp519
g111
(lp520
Vitanium
p521
aVmckinley
p522
asg115
I01
ss(Vbase
p523
Vm68k
p524
tp525
(dp526
Vcflags
p527
V-ffreestanding
p528
sVdefault-flavour
p529
Vm68k
p530
sVkernel-arch
p531
Vm68k
p532
sg70
(lp533
g72
ass(Vbuild
p534
g524
tp535
(dp536
Vimage-file
p537
Vvmlinux
p538
ss(Vimage
p539
g524
tp540
(dp541
Vsuggests
p542
(lp543
Vvmelilo
p544
aVfdutils
p545
asVinstall-stem
p546
Vvmlinux
p547
ss(Vdescription
p548
g524
NVm68k
p549
tp550
(dp551
Vhardware
p552
VMotorola MC68020+ family
p553
ss(Vpackages
p554
g524
NVm68k
p555
tp556
(dp557
Vinstaller
p558
I01
ss(g108
g524
g72
tp559
(dp560
g111
(lp561
Vm68k
p562
asg115
I01
ss(Vbase
p563
Vmips
p564
tp565
(dp566
Vkernel-arch
p567
Vmips
p568
sg70
(lp569
g72
ass(Vbuild
p570
g564
tp571
(dp572
Vimage-file
p573
Vvmlinuz
p574
ss(Vimage
p575
g564
tp576
(dp577
Vinstall-stem
p578
Vvmlinuz
p579
ss(Vdescription
p580
g564
NV4kc-malta
p581
tp582
(dp583
Vhardware
p584
VMIPS Malta
p585
sVhardware-long
p586
VMIPS Malta boards
p587
ss(Vimage
p588
g564
NV4kc-malta
p589
tp590
(dp591
Vconfigs
p592
(lp593
Vkernelarch-mips/config.malta
p594
aVkernelarch-mips/config.mips32r2
p595
ass(Vpackages
p596
g564
NV4kc-malta
p597
tp598
(dp599
Vinstaller
p600
I01
ss(Vdescription
p601
g564
NVmips32r2eb
p602
tp603
(dp604
Vhardware
p605
VMIPS Generic (mips32r2eb)
p606
sVhardware-long
p607
VMIPS Generic platform (mips32r2eb)
p608
ss(Vimage
p609
g564
NVmips32r2eb
p610
tp611
(dp612
Vconfigs
p613
(lp614
Vkernelarch-mips/config.boston
p615
aVkernelarch-mips/config.mips32r2
p616
ass(Vpackages
p617
g564
NVmips32r2eb
p618
tp619
(dp620
Vinstaller
p621
I01
ss(Vdescription
p622
g564
NVocteon
p623
tp624
(dp625
Vhardware
p626
VOcteon
p627
sVhardware-long
p628
VCavium Networks Octeon
p629
ss(Vbuild
p630
g564
NVocteon
p631
tp632
(dp633
Vimage-file
p634
Vvmlinux
p635
ss(Vimage
p636
g564
NVocteon
p637
tp638
(dp639
Vinstall-stem
p640
Vvmlinux
p641
sVconfigs
p642
(lp643
Vkernelarch-mips/config.octeon
p644
ass(Vpackages
p645
g564
NVocteon
p646
tp647
(dp648
Vinstaller
p649
I01
ss(g108
g564
g72
tp650
(dp651
g111
(lp652
V4kc-malta
p653
aVmips32r2eb
p654
aVocteon
p655
asg115
I01
ss(Vbase
p656
Vmips64
p657
tp658
(dp659
Vkernel-arch
p660
Vmips
p661
sg70
(lp662
g72
ass(Vbuild
p663
g657
tp664
(dp665
Vimage-file
p666
Vvmlinuz
p667
ss(Vimage
p668
g657
tp669
(dp670
Vinstall-stem
p671
Vvmlinuz
p672
ss(Vdescription
p673
g657
NV5kc-malta
p674
tp675
(dp676
Vhardware
p677
VMIPS Malta
p678
sVhardware-long
p679
VMIPS Malta boards
p680
ss(Vimage
p681
g657
NV5kc-malta
p682
tp683
(dp684
Vconfigs
p685
(lp686
Vkernelarch-mips/config.malta
p687
aVkernelarch-mips/config.mips64r2
p688
ass(Vpackages
p689
g657
NV5kc-malta
p690
tp691
(dp692
Vinstaller
p693
I01
ss(Vdescription
p694
g657
NVmips64r2eb
p695
tp696
(dp697
Vhardware
p698
VMIPS Generic (mips64r2eb)
p699
sVhardware-long
p700
VMIPS Generic platform (mips64r2eb)
p701
ss(Vimage
p702
g657
NVmips64r2eb
p703
tp704
(dp705
Vconfigs
p706
(lp707
Vkernelarch-mips/config.boston
p708
aVkernelarch-mips/config.mips64r2
p709
ass(Vpackages
p710
g657
NVmips64r2eb
p711
tp712
(dp713
Vinstaller
p714
I01
ss(Vdescription
p715
g657
NVocteon
p716
tp717
(dp718
Vhardware
p719
VOcteon
p720
sVhardware-long
p721
VCavium Networks Octeon
p722
ss(Vbuild
p723
g657
NVocteon
p724
tp725
(dp726
Vimage-file
p727
Vvmlinux
p728
ss(Vimage
p729
g657
NVocteon
p730
tp731
(dp732
Vinstall-stem
p733
Vvmlinux
p734
sVconfigs
p735
(lp736
Vkernelarch-mips/config.octeon
p737
ass(Vpackages
p738
g657
NVocteon
p739
tp740
(dp741
Vinstaller
p742
I01
ss(g108
g657
g72
tp743
(dp744
g111
(lp745
V5kc-malta
p746
aVmips64r2eb
p747
aVocteon
p748
asg115
I01
ss(Vbase
p749
Vmips64el
p750
tp751
(dp752
Vkernel-arch
p753
Vmips
p754
sg70
(lp755
g72
ass(Vbuild
p756
g750
tp757
(dp758
Vimage-file
p759
Vvmlinuz
p760
ss(Vimage
p761
g750
tp762
(dp763
Vinstall-stem
p764
Vvmlinuz
p765
ss(Vdescription
p766
g750
NV5kc-malta
p767
tp768
(dp769
Vhardware
p770
VMIPS Malta
p771
sVhardware-long
p772
VMIPS Malta boards
p773
ss(Vimage
p774
g750
NV5kc-malta
p775
tp776
(dp777
Vconfigs
p778
(lp779
Vkernelarch-mips/config.malta
p780
aVkernelarch-mips/config.mips64r2
p781
ass(Vpackages
p782
g750
NV5kc-malta
p783
tp784
(dp785
Vinstaller
p786
I01
ss(Vdescription
p787
g750
NVmips64r2el
p788
tp789
(dp790
Vhardware
p791
VMIPS Generic (mips64r2el)
p792
sVhardware-long
p793
VMIPS Generic platform (mips64r2el)
p794
ss(Vimage
p795
g750
NVmips64r2el
p796
tp797
(dp798
Vconfigs
p799
(lp800
Vkernelarch-mips/config.boston
p801
aVkernelarch-mips/config.mips64r2
p802
ass(Vpackages
p803
g750
NVmips64r2el
p804
tp805
(dp806
Vinstaller
p807
I01
ss(Vdescription
p808
g750
NVloongson-3
p809
tp810
(dp811
Vhardware
p812
VLoongson 3A/3B
p813
sVhardware-long
p814
VLoongson 3A or 3B based systems (e.g. from Loongson or Lemote)
p815
ss(Vimage
p816
g750
NVloongson-3
p817
tp818
(dp819
Vrecommends
p820
(lp821
Vpmon-update
p822
asVconfigs
p823
(lp824
Vkernelarch-mips/config.loongson-3
p825
ass(Vpackages
p826
g750
NVloongson-3
p827
tp828
(dp829
Vinstaller
p830
I01
ss(Vdescription
p831
g750
NVocteon
p832
tp833
(dp834
Vhardware
p835
VOcteon
p836
sVhardware-long
p837
VCavium Networks Octeon
p838
ss(Vbuild
p839
g750
NVocteon
p840
tp841
(dp842
Vimage-file
p843
Vvmlinux
p844
ss(Vimage
p845
g750
NVocteon
p846
tp847
(dp848
Vinstall-stem
p849
Vvmlinux
p850
sVconfigs
p851
(lp852
Vkernelarch-mips/config.octeon
p853
ass(Vpackages
p854
g750
NVocteon
p855
tp856
(dp857
Vinstaller
p858
I01
ss(g108
g750
g72
tp859
(dp860
g111
(lp861
V5kc-malta
p862
aVmips64r2el
p863
aVloongson-3
p864
aVocteon
p865
asg115
I01
ss(Vbase
p866
Vmips64r6el
p867
tp868
(dp869
Vkernel-arch
p870
Vmips
p871
sg70
(lp872
g72
ass(Vbuild
p873
g867
tp874
(dp875
Vimage-file
p876
Vvmlinuz
p877
ss(Vimage
p878
g867
tp879
(dp880
Vinstall-stem
p881
Vvmlinuz
p882
ss(Vdescription
p883
g867
NVmips64r6el
p884
tp885
(dp886
Vhardware
p887
VMIPS Generic (mips64r6el)
p888
sVhardware-long
p889
VMIPS Generic platform (mips64r6el)
p890
ss(Vimage
p891
g867
NVmips64r6el
p892
tp893
(dp894
Vconfigs
p895
(lp896
Vkernelarch-mips/config.boston
p897
aVkernelarch-mips/config.mips64r6
p898
ass(Vpackages
p899
g867
NVmips64r6el
p900
tp901
(dp902
Vinstaller
p903
I01
ss(g108
g867
g72
tp904
(dp905
g111
(lp906
Vmips64r6el
p907
asg115
I01
ss(Vbase
p908
Vmipsel
p909
tp910
(dp911
Vkernel-arch
p912
Vmips
p913
sg70
(lp914
g72
ass(Vbuild
p915
g909
tp916
(dp917
Vimage-file
p918
Vvmlinuz
p919
ss(Vimage
p920
g909
tp921
(dp922
Vinstall-stem
p923
Vvmlinuz
p924
ss(Vdescription
p925
g909
NV4kc-malta
p926
tp927
(dp928
Vhardware
p929
VMIPS Malta
p930
sVhardware-long
p931
VMIPS Malta boards
p932
ss(Vimage
p933
g909
NV4kc-malta
p934
tp935
(dp936
Vconfigs
p937
(lp938
Vkernelarch-mips/config.malta
p939
aVkernelarch-mips/config.mips32r2
p940
ass(Vpackages
p941
g909
NV4kc-malta
p942
tp943
(dp944
Vinstaller
p945
I01
ss(Vdescription
p946
g909
NVmips32r2el
p947
tp948
(dp949
Vhardware
p950
VMIPS Generic (mips32r2el)
p951
sVhardware-long
p952
VMIPS Generic platform (mips32r2el)
p953
ss(Vimage
p954
g909
NVmips32r2el
p955
tp956
(dp957
Vconfigs
p958
(lp959
Vkernelarch-mips/config.boston
p960
aVkernelarch-mips/config.mips32r2
p961
ass(Vpackages
p962
g909
NVmips32r2el
p963
tp964
(dp965
Vinstaller
p966
I01
ss(Vdescription
p967
g909
NVloongson-3
p968
tp969
(dp970
Vhardware
p971
VLoongson 3A/3B
p972
sVhardware-long
p973
VLoongson 3A or 3B based systems (e.g. from Loongson or Lemote)
p974
ss(Vimage
p975
g909
NVloongson-3
p976
tp977
(dp978
Vrecommends
p979
(lp980
Vpmon-update
p981
asVconfigs
p982
(lp983
Vkernelarch-mips/config.loongson-3
p984
ass(Vpackages
p985
g909
NVloongson-3
p986
tp987
(dp988
Vinstaller
p989
I01
ss(Vdescription
p990
g909
NVocteon
p991
tp992
(dp993
Vhardware
p994
VOcteon
p995
sVhardware-long
p996
VCavium Networks Octeon
p997
ss(Vbuild
p998
g909
NVocteon
p999
tp1000
(dp1001
Vimage-file
p1002
Vvmlinux
p1003
ss(Vimage
p1004
g909
NVocteon
p1005
tp1006
(dp1007
Vinstall-stem
p1008
Vvmlinux
p1009
sVconfigs
p1010
(lp1011
Vkernelarch-mips/config.octeon
p1012
ass(Vpackages
p1013
g909
NVocteon
p1014
tp1015
(dp1016
Vinstaller
p1017
I01
ss(g108
g909
g72
tp1018
(dp1019
g111
(lp1020
V4kc-malta
p1021
aVmips32r2el
p1022
aVloongson-3
p1023
aVocteon
p1024
asg115
I01
ss(Vbase
p1025
Vpowerpc
p1026
tp1027
(dp1028
Vkernel-arch
p1029
Vpowerpc
p1030
sg70
(lp1031
g72
ass(Vbuild
p1032
g1026
tp1033
(dp1034
Vimage-file
p1035
Vvmlinux
p1036
ss(Vimage
p1037
g1026
tp1038
(dp1039
Vconfigs
p1040
(lp1041
sVsuggests
p1042
(lp1043
Vmkvmlinuz
p1044
aVgrub-ieee1275
p1045
asVinstall-stem
p1046
Vvmlinux
p1047
ss(Vdescription
p1048
g1026
NVpowerpc
p1049
tp1050
(dp1051
Vhardware
p1052
Vuniprocessor 32-bit PowerPC
p1053
ss(Vpackages
p1054
g1026
NVpowerpc
p1055
tp1056
(dp1057
Vinstaller
p1058
I01
ss(Vdescription
p1059
g1026
NVpowerpc-smp
p1060
tp1061
(dp1062
Vhardware
p1063
Vmultiprocessor 32-bit PowerPC
p1064
ss(Vimage
p1065
g1026
NVpowerpc-smp
p1066
tp1067
(dp1068
Vconfigs
p1069
(lp1070
Vpowerpc/config.powerpc
p1071
aVpowerpc/config.powerpc-smp
p1072
ass(Vdescription
p1073
g1026
NVpowerpc64
p1074
tp1075
(dp1076
Vhardware
p1077
V64-bit PowerPC
p1078
ss(Vimage
p1079
g1026
NVpowerpc64
p1080
tp1081
(dp1082
Vconfigs
p1083
(lp1084
Vkernelarch-powerpc/config-arch-64
p1085
aVkernelarch-powerpc/config-arch-64-be
p1086
ass(Vpackages
p1087
g1026
NVpowerpc64
p1088
tp1089
(dp1090
Vinstaller
p1091
I01
ss(g108
g1026
g72
tp1092
(dp1093
g111
(lp1094
Vpowerpc
p1095
aVpowerpc-smp
p1096
aVpowerpc64
p1097
asg115
I01
ss(Vbase
p1098
Vppc64
p1099
tp1100
(dp1101
Vdefault-flavour
p1102
Vpowerpc64
p1103
sVkernel-arch
p1104
Vpowerpc
p1105
sg70
(lp1106
g72
ass(Vbuild
p1107
g1099
tp1108
(dp1109
Vimage-file
p1110
Vvmlinux
p1111
ss(Vimage
p1112
g1099
tp1113
(dp1114
Vconfigs
p1115
(lp1116
sVsuggests
p1117
(lp1118
Vmkvmlinuz
p1119
aVgrub-ieee1275
p1120
asVinstall-stem
p1121
Vvmlinux
p1122
ss(Vdescription
p1123
g1099
NVpowerpc64
p1124
tp1125
(dp1126
Vhardware
p1127
V64-bit PowerPC
p1128
ss(Vimage
p1129
g1099
NVpowerpc64
p1130
tp1131
(dp1132
Vconfigs
p1133
(lp1134
Vkernelarch-powerpc/config-arch-64
p1135
aVkernelarch-powerpc/config-arch-64-be
p1136
ass(Vpackages
p1137
g1099
NVpowerpc64
p1138
tp1139
(dp1140
Vinstaller
p1141
I01
ss(g108
g1099
g72
tp1142
(dp1143
g111
(lp1144
Vpowerpc64
p1145
asg115
I01
ss(Vbase
p1146
Vppc64el
p1147
tp1148
(dp1149
Vdefault-flavour
p1150
Vpowerpc64le
p1151
sVkernel-arch
p1152
Vpowerpc
p1153
sg70
(lp1154
g72
ass(Vbuild
p1155
g1147
tp1156
(dp1157
Vimage-file
p1158
Vvmlinux
p1159
ss(Vimage
p1160
g1147
tp1161
(dp1162
Vconfigs
p1163
(lp1164
sVsuggests
p1165
(lp1166
Vmkvmlinuz
p1167
aVgrub-ieee1275
p1168
asVinstall-stem
p1169
Vvmlinux
p1170
ss(Vdescription
p1171
g1147
NVpowerpc64le
p1172
tp1173
(dp1174
Vhardware
p1175
VLittle-endian 64-bit PowerPC
p1176
ss(Vimage
p1177
g1147
NVpowerpc64le
p1178
tp1179
(dp1180
Vconfigs
p1181
(lp1182
Vkernelarch-powerpc/config-arch-64
p1183
aVkernelarch-powerpc/config-arch-64-le
p1184
ass(Vpackages
p1185
g1147
NVpowerpc64le
p1186
tp1187
(dp1188
Vinstaller
p1189
I01
ss(g108
g1147
g72
tp1190
(dp1191
g111
(lp1192
Vpowerpc64le
p1193
asg115
I01
ss(Vbase
p1194
Vriscv64
p1195
tp1196
(dp1197
Vkernel-arch
p1198
Vriscv
p1199
sVfeaturesets
p1200
(lp1201
Vnone
p1202
ass(Vbuild
p1203
g1195
tp1204
(dp1205
Vimage-file
p1206
Varch/riscv/boot/Image
p1207
sVvdso
p1208
I01
ss(Vimage
p1209
g1195
tp1210
(dp1211
Vinstall-stem
p1212
Vvmlinux
p1213
ss(Vdescription
p1214
g1195
NVriscv64
p1215
tp1216
(dp1217
Vhardware
p1218
V64-bit RISC-V platforms
p1219
sVhardware-long
p1220
V64-bit RISC-V platforms
p1221
ss(Vbase
p1222
g1195
Vnone
p1223
tp1224
(dp1225
Vflavours
p1226
(lp1227
Vriscv64
p1228
asVdefault-flavour
p1229
Vriscv64
p1230
ss(Vpackages
p1231
g1195
g1223
Vriscv64
p1232
tp1233
(dp1234
Vinstaller
p1235
I01
ss(Vbase
p1236
Vs390x
p1237
tp1238
(dp1239
Vdefault-flavour
p1240
Vs390x
p1241
sVkernel-arch
p1242
Vs390
p1243
sg70
(lp1244
g72
ass(Vbuild
p1245
g1237
tp1246
(dp1247
Vimage-file
p1248
Varch/s390/boot/bzImage
p1249
sVvdso
p1250
I01
ss(Vimage
p1251
g1237
tp1252
(dp1253
Vsuggests
p1254
(lp1255
Vs390-tools
p1256
asVinstall-stem
p1257
Vvmlinuz
p1258
ss(Vdescription
p1259
g1237
NVs390x
p1260
tp1261
(dp1262
Vhardware
p1263
VIBM zSeries
p1264
ss(Vpackages
p1265
g1237
NVs390x
p1266
tp1267
(dp1268
Vinstaller
p1269
I01
ss(g108
g1237
g72
tp1270
(dp1271
g111
(lp1272
Vs390x
p1273
asg115
I01
ss(Vbase
p1274
Vsh4
p1275
tp1276
(dp1277
Vkernel-arch
p1278
Vsh
p1279
sg70
(lp1280
g72
ass(Vbuild
p1281
g1275
tp1282
(dp1283
Vimage-file
p1284
Varch/sh/boot/zImage
p1285
ss(Vimage
p1286
g1275
tp1287
(dp1288
Vinstall-stem
p1289
Vvmlinuz
p1290
ss(Vdescription
p1291
g1275
NVsh7751r
p1292
tp1293
(dp1294
Vhardware
p1295
Vsh7751r
p1296
sVhardware-long
p1297
VRenesas SH7751R R2D plus board
p1298
ss(Vpackages
p1299
g1275
NVsh7751r
p1300
tp1301
(dp1302
Vinstaller
p1303
I01
ss(Vdescription
p1304
g1275
NVsh7785lcr
p1305
tp1306
(dp1307
Vhardware
p1308
Vsh7785lcr
p1309
sVhardware-long
p1310
VRenesas SH7785 reference board
p1311
ss(Vimage
p1312
g1275
NVsh7785lcr
p1313
tp1314
(dp1315
Vrecommends
p1316
(lp1317
Vu-boot-tools
p1318
asVcheck-size
p1319
I4194304
ss(Vpackages
p1320
g1275
NVsh7785lcr
p1321
tp1322
(dp1323
Vinstaller
p1324
I01
ss(g108
g1275
g72
tp1325
(dp1326
g111
(lp1327
Vsh7751r
p1328
aVsh7785lcr
p1329
asg115
I01
ss(Vbase
p1330
Vsparc64
p1331
tp1332
(dp1333
Vdefault-flavour
p1334
Vsparc64-smp
p1335
sVkernel-arch
p1336
Vsparc
p1337
sg70
(lp1338
g72
ass(Vbuild
p1339
g1331
tp1340
(dp1341
Vimage-file
p1342
Vvmlinux
p1343
ss(Vimage
p1344
g1331
tp1345
(dp1346
Vconfigs
p1347
(lp1348
sVsuggests
p1349
(lp1350
Vfdutils
p1351
aVgrub-ieee1275
p1352
asVinstall-stem
p1353
Vvmlinux
p1354
ss(Vdescription
p1355
g1331
NVsparc64
p1356
tp1357
(dp1358
Vhardware
p1359
Vuniprocessor 64-bit UltraSPARC
p1360
ss(Vimage
p1361
g1331
NVsparc64
p1362
tp1363
(dp1364
Vconfigs
p1365
(lp1366
Vkernelarch-sparc/config-up
p1367
ass(Vpackages
p1368
g1331
NVsparc64
p1369
tp1370
(dp1371
Vinstaller
p1372
I01
ss(Vdescription
p1373
g1331
NVsparc64-smp
p1374
tp1375
(dp1376
Vhardware
p1377
Vmultiprocessor 64-bit UltraSPARC
p1378
ss(Vimage
p1379
g1331
NVsparc64-smp
p1380
tp1381
(dp1382
Vconfigs
p1383
(lp1384
Vkernelarch-sparc/config-smp
p1385
ass(g108
g1331
g72
tp1386
(dp1387
g111
(lp1388
Vsparc64
p1389
aVsparc64-smp
p1390
asg115
I01
ss(Vbase
p1391
Vx32
p1392
tp1393
(dp1394
Vkernel-arch
p1395
Vx86
p1396
sVfeaturesets
p1397
(lp1398
ss(Vabi
p1399
NVrt
p1400
tp1401
(dp1402
Vignore-changes
p1403
V*
p1404
ss(Vdescription
p1405
Ng1400
tp1406
(dp1407
Vpart-long-rt
p1408
VThis kernel includes the PREEMPT_RT realtime patch set.
p1409
sVpart-short-rt
p1410
VPREEMPT_RT
p1411
sVparts
p1412
(lp1413
Vrt
p1414
ass(Vversion
p1415
tp1416
(dp1417
Vsource
p1418
V6.6.15-2+pexip24u1
p1419
sVupstream
p1420
V6.6
p1421
sVabiname_base
p1422
V6.6.15+pexip
p1423
sVabiname
p1424
g1423
ss.