cdebian_linux.config
ConfigCore
p0
(tRp1
(Vabi
p2
tp3
(dp4
Vabiname
p5
V1pexip1
p6
sVignore-changes
p7
(lp8
V__cpuhp_*
p9
aVbpf_analyzer
p10
aVcxl_*
p11
aVdax_flush
p12
aVieee80211_nullfunc_get
p13
aVinet_add_protocol
p14
aVinet_del_protocol
p15
aViommu_device_*
p16
aVmm_iommu_*
p17
aVmv_mbus_*
p18
aVperf_*
p19
aVregister_cxl_calls
p20
aVregister_key_type
p21
aVunregister_cxl_calls
p22
aV*_hw_breakpoint
p23
aVmodule:drivers/crypto/ccp/*
p24
aVmodule:drivers/hv/*
p25
aVmodule:drivers/gpu/drm/sun4i/*
p26
aVmodule:drivers/iio/**
p27
aVmodule:drivers/misc/cxl/*
p28
aVmodule:drivers/mtd/nand/*
p29
aVmodule:drivers/net/ethernet/**
p30
aVmodule:drivers/net/wireless/**
p31
aVmodule:drivers/nvdimm/*
p32
aVmodule:drivers/nvme/**
p33
aVmodule:drivers/power/supply/bq27xxx_battery
p34
aVmodule:drivers/scsi/cxgbi/*
p35
aVmodule:drivers/scsi/libiscs*
p36
aVmodule:drivers/scsi/qla2xxx/qla2xxx
p37
aVmodule:drivers/scsi/ufs/*
p38
aVmodule:drivers/target/**
p39
aVmodule:drivers/usb/chipidea/**
p40
aVmodule:drivers/usb/gadget/**
p41
aVmodule:drivers/usb/host/**
p42
aVmodule:drivers/usb/musb/**
p43
aVmodule:fs/nfs/**
p44
aVmodule:net/ceph/libceph
p45
aVmodule:net/l2tp/**
p46
aVmodule:net/rxrpc/rxrpc
p47
aVmodule:net/sctp/**
p48
aVmodule:sound/core/seq/**
p49
aVmodule:sound/firewire/snd-firewire-lib
p50
aVmodule:sound/pci/hda/*
p51
aVbtree_*
p52
aVvisitor*
p53
aVcan_rx_register
p54
aVip6_xmit
p55
aVmodule:net/dccp/dccp
p56
aVmodule:net/rds/rds
p57
aVdevfreq_*
p58
aVdevm_devfreq_*
p59
aVupdate_devfreq
p60
aVmodule:drivers/infiniband/**
p61
aVacpi_ec_add_query_handler
p62
aVacpi_ec_remove_query_handler
p63
aVfirst_ec
p64
aVdebugfs_create_automount
p65
aVmodule:drivers/iio/imu/inv_mpu6050/*
p66
aVdrm_crtc_accurate_vblank_count
p67
aVacpi_nfit_desc_init
p68
aVacpi_nfit_init
p69
aVloop_register_transfer
p70
aVxen_xlate_*
p71
aVnf_nat_masquerade_ipv4_register_notifier
p72
aVnf_nat_masquerade_ipv6_register_notifier
p73
aVmodule:drivers/scsi/hisi_sas/*
p74
aV__gfn_*
p75
aV__kvmhv_*
p76
aV__kvm_*
p77
aV__xive_vm_h_*
p78
aVgfn_*
p79
aVh_ipi_redirect
p80
aVhalt_poll_ns*
p81
aVkvm_*
p82
aVkvmhv_*
p83
aVkvmppc_*
p84
aVmark_page_dirty
p85
aVvcpu_*
p86
aVmodule:arch/powerpc/kvm/*
p87
aVmodule:arch/s390/kvm/*
p88
aVmodule:arch/x86/kvm/*
p89
ass(Vbase
p90
tp91
(dp92
Varches
p93
(lp94
Valpha
p95
aVamd64
p96
aVarm64
p97
aVarm64ilp32
p98
aVarmel
p99
aVarmhf
p100
aVhppa
p101
aVi386
p102
aVia64
p103
aVm68k
p104
aVmips
p105
aVmips64
p106
aVmips64el
p107
aVmips64r6
p108
aVmips64r6el
p109
aVmipsel
p110
aVmipsn32
p111
aVmipsn32el
p112
aVmipsn32r6
p113
aVmipsn32r6el
p114
aVmipsr6
p115
aVmipsr6el
p116
aVpowerpc
p117
aVppc64
p118
aVppc64el
p119
aVriscv64
p120
aVs390
p121
aVs390x
p122
aVsh3
p123
aVsh4
p124
aVsparc
p125
aVsparc64
p126
aVx32
p127
asVcompiler
p128
Vgcc-8
p129
sVfeaturesets
p130
(lp131
Vnone
p132
aVrt
p133
ass(Vbuild
p134
tp135
(dp136
Vdebug-info
p137
I01
sVsigned-code
p138
I00
ss(Vbase
p139
NVrt
p140
tp141
(dp142
Venabled
p143
I00
ss(Vdescription
p144
tp145
(dp146
Vpart-long-up
p147
VThis kernel is not suitable for SMP (multi-processor,\u000amulti-core or hyper-threaded) systems.
p148
ss(Vimage
p149
tp150
(dp151
Vinitramfs-generators
p152
(lp153
Vinitramfs-tools
p154
aVinitramfs-fallback
p155
asVbreaks
p156
(lp157
Vwireless-regdb (<< 2019.06.03-1~)
p158
asVrecommends
p159
(lp160
Vapparmor
p161
ass(Vrelations
p162
tp163
(dp164
Vgcc-8
p165
Vgcc-8 <!stage1 !cross !pkg.linux.nokernel>, gcc-8-@gnu-type-package@ <!stage1 cross !pkg.linux.nokernel>
p166
sVinitramfs-fallback
p167
Vlinux-initramfs-tool
p168
sVinitramfs-tools
p169
Vinitramfs-tools (>= 0.120+deb8u2)
p170
ss(Vbase
p171
Valpha
p172
tp173
(dp174
Vdefault-flavour
p175
Valpha-smp
p176
sVkernel-arch
p177
Valpha
p178
sVfeaturesets
p179
(lp180
Vnone
p181
ass(Vbuild
p182
g172
tp183
(dp184
Vimage-file
p185
Varch/alpha/boot/vmlinux.gz
p186
ss(Vimage
p187
g172
tp188
(dp189
Vsuggests
p190
(lp191
Vaboot
p192
aVfdutils
p193
asVinstall-stem
p194
Vvmlinuz
p195
ss(Vdescription
p196
g172
NValpha-generic
p197
tp198
(dp199
Vhardware
p200
VAlpha
p201
sVhardware-long
p202
VDEC Alpha systems with extended kernel start address (Wildfire, Titan, Marvel)
p203
ss(Vdescription
p204
g172
NValpha-smp
p205
tp206
(dp207
Vhardware
p208
VAlpha SMP
p209
sVhardware-long
p210
VDEC Alpha SMP systems with extended kernel start address (Wildfire, Titan, Marvel)
p211
ss(Vbase
p212
g172
g181
tp213
(dp214
Vflavours
p215
(lp216
Valpha-generic
p217
aValpha-smp
p218
asVimplicit-flavour
p219
I01
ss(Vbase
p220
Vamd64
p221
tp222
(dp223
Vfeaturesets
p224
(lp225
Vnone
p226
asVkernel-arch
p227
Vx86
p228
ss(Vbuild
p229
g221
tp230
(dp231
Vimage-file
p232
Varch/x86/boot/bzImage
p233
sVsigned-code
p234
I00
sVvdso
p235
I01
ss(Vimage
p236
g221
tp237
(dp238
Vbootloaders
p239
(lp240
Vgrub-pc
p241
aVgrub-efi-amd64
p242
aVextlinux
p243
asVinstall-stem
p244
Vvmlinuz
p245
sVbreaks
p246
(lp247
Vxserver-xorg-input-vmmouse (<< 1:13.0.99)
p248
ass(Vrelations
p249
g221
tp250
(dp251
Vheaders%gcc-8
p252
Vlinux-compiler-gcc-8-x86
p253
ss(Vdescription
p254
g221
NVamd64
p255
tp256
(dp257
Vhardware
p258
V64-bit PCs
p259
sVhardware-long
p260
VPCs with AMD64, Intel 64 or VIA Nano processors
p261
ss(Vbase
p262
g221
Vnone
p263
tp264
(dp265
Vflavours
p266
(lp267
Vamd64
p268
asVdefault-flavour
p269
Vamd64
p270
ss(Vimage
p271
g221
g263
Vamd64
p272
tp273
(dp274
Vconfigs
p275
(lp276
Vconfig.cloud
p277
aVamd64/config.cloud-amd64
p278
ass(Vbase
p279
Varm64
p280
tp281
(dp282
Vcross-compile-compat
p283
Varm-linux-gnueabihf-
p284
sVkernel-arch
p285
Varm64
p286
sVfeaturesets
p287
(lp288
Vnone
p289
aVrt
p290
ass(Vbuild
p291
g280
tp292
(dp293
Vimage-file
p294
Varch/arm64/boot/Image
p295
sVsigned-code
p296
I01
sVvdso
p297
I01
ss(Vimage
p298
g280
tp299
(dp300
Vinstall-stem
p301
Vvmlinuz
p302
sVbreaks
p303
(lp304
Vlibmozjs185-1.0
p305
aVlibmozjs-24-0 (<< 24.2.0-5.1~)
p306
ass(Vdescription
p307
g280
NVarm64
p308
tp309
(dp310
Vhardware
p311
V64-bit ARMv8 machines
p312
ss(Vdescription
p313
g280
NVcloud-arm64
p314
tp315
(dp316
Vhardware
p317
Varm64 cloud
p318
sVhardware-long
p319
Vcloud platforms supporting arm64 virtual machines
p320
ss(Vimage
p321
g280
NVarm64
p322
tp323
(dp324
s(Vrelations
p325
g280
tp326
(dp327
Vgcc-10
p328
Vgcc-10 <!stage1 !cross !pkg.linux.nokernel>, gcc-10-aarch64-linux-gnu <!stage1 cross !pkg.linux.nokernel>, gcc-arm-linux-gnueabihf <!stage1 !pkg.linux.nokernel>
p329
sVheaders%gcc-10
p330
Vgcc-10
p331
ss(Vbase
p332
g280
Vnone
p333
tp334
(dp335
Vflavours
p336
(lp337
Varm64
p338
aVcloud-arm64
p339
asVdefault-flavour
p340
Varm64
p341
ss(Vimage
p342
g280
g333
Vcloud-arm64
p343
tp344
(dp345
Vconfigs
p346
(lp347
Vconfig.cloud
p348
aVarm64/config.cloud-arm64
p349
ass(Vbase
p350
g280
Vrt
p351
tp352
(dp353
Vflavours
p354
(lp355
Varm64
p356
ass(Vbase
p357
Varm64ilp32
p358
tp359
(dp360
Vkernel-arch
p361
Varm64
p362
sVfeaturesets
p363
(lp364
ss(Vbase
p365
Varmel
p366
tp367
(dp368
Vkernel-arch
p369
Varm
p370
sg179
(lp371
g181
ass(Vbuild
p372
g366
tp373
(dp374
Vimage-file
p375
Varch/arm/boot/zImage
p376
sVuncompressed-image-file
p377
Varch/arm/boot/Image
p378
ss(Vimage
p379
g366
tp380
(dp381
Vinstall-stem
p382
Vvmlinuz
p383
ss(Vrelations
p384
g366
tp385
(dp386
Vheaders%gcc-10
p387
Vlinux-compiler-gcc-10-arm
p388
ss(Vdescription
p389
g366
NVmarvell
p390
tp391
(dp392
Vhardware
p393
VMarvell Kirkwood/Orion
p394
sVhardware-long
p395
VMarvell Kirkwood and Orion based systems (https://wiki.debian.org/ArmEabiPort#Supported_hardware)
p396
ss(Vdescription
p397
g366
NVrpi
p398
tp399
(dp400
Vhardware
p401
VRaspberry Pi and Pi Zero
p402
sVhardware-long
p403
VRaspberry Pi, Raspberry Pi Zero based systems
p404
ss(Vimage
p405
g366
NVmarvell
p406
tp407
(dp408
Vrecommends
p409
(lp410
Vu-boot-tools
p411
asVcheck-size
p412
I2729712
sVcheck-size-with-dtb
p413
I01
sVbreaks
p414
(lp415
Vflash-kernel (<< 3.57~)
p416
ass(g212
g366
g181
tp417
(dp418
g215
(lp419
Vmarvell
p420
aVrpi
p421
asg219
I01
ss(Vbase
p422
Varmhf
p423
tp424
(dp425
Vfeaturesets
p426
(lp427
Vnone
p428
aVrt
p429
asVkernel-arch
p430
Varm
p431
ss(Vbuild
p432
g423
tp433
(dp434
Vimage-file
p435
Varch/arm/boot/zImage
p436
sVvdso
p437
I01
ss(Vimage
p438
g423
tp439
(dp440
Vinstall-stem
p441
Vvmlinuz
p442
ss(Vrelations
p443
g423
tp444
(dp445
Vheaders%gcc-10
p446
Vlinux-compiler-gcc-10-arm
p447
ss(Vdescription
p448
g423
NVarmmp
p449
tp450
(dp451
Vhardware
p452
VARMv7 multiplatform compatible SoCs
p453
sVhardware-long
p454
VARMv7 multiplatform kernel. See\u000ahttps://wiki.debian.org/DebianKernel/ARMMP for details of supported\u000aplatforms
p455
ss(Vdescription
p456
g423
NVarmmp-lpae
p457
tp458
(dp459
Vhardware
p460
VARMv7 multiplatform compatible SoCs supporting LPAE
p461
sVhardware-long
p462
VARMv7 multiplatform kernel supporting LPAE. See\u000ahttps://wiki.debian.org/DebianKernel/ARMMP for details of supported\u000aplatforms.
p463
ss(Vbase
p464
g423
Vnone
p465
tp466
(dp467
Vflavours
p468
(lp469
Varmmp
p470
aVarmmp-lpae
p471
asVdefault-flavour
p472
Varmmp
p473
ss(Vbase
p474
g423
Vrt
p475
tp476
(dp477
Vflavours
p478
(lp479
Varmmp
p480
ass(Vbase
p481
Vhppa
p482
tp483
(dp484
Vdefault-flavour
p485
Vparisc
p486
sVkernel-arch
p487
Vparisc
p488
sg179
(lp489
g181
ass(Vbuild
p490
g482
tp491
(dp492
Vimage-file
p493
Varch/parisc/boot/bzImage
p494
sVdebug-info
p495
I00
ss(Vimage
p496
g482
tp497
(dp498
Vsuggests
p499
(lp500
Vpalo
p501
asVinstall-stem
p502
Vvmlinuz
p503
ss(Vdescription
p504
g482
NVparisc
p505
tp506
(dp507
Vhardware
p508
V32-bit PA-RISC
p509
sVhardware-long
p510
VHP PA-RISC 32-bit systems with max 4 GB RAM
p511
ss(Vbase
p512
g482
NVparisc64
p513
tp514
(dp515
Vcflags
p516
V-fno-cse-follow-jumps
p517
sVoverride-host-type
p518
Vhppa64-linux-gnu
p519
ss(Vdescription
p520
g482
NVparisc64
p521
tp522
(dp523
Vhardware
p524
V64-bit PA-RISC
p525
sVhardware-long
p526
VHP PA-RISC 64-bit systems with support for more than 4 GB RAM
p527
ss(Vrelations
p528
g482
tp529
(dp530
Vgcc-10
p531
Vgcc-10 <!stage1 !cross !pkg.linux.nokernel>, gcc-10-hppa-linux-gnu <!stage1 cross !pkg.linux.nokernel>, binutils-hppa64-linux-gnu <!stage1 !pkg.linux.nokernel>, gcc-10-hppa64-linux-gnu <!stage1 !pkg.linux.nokernel>
p532
ss(g212
g482
g181
tp533
(dp534
g215
(lp535
Vparisc
p536
aVparisc64
p537
asg219
I01
ss(Vbase
p538
Vi386
p539
tp540
(dp541
Vfeaturesets
p542
(lp543
Vnone
p544
aVrt
p545
asVkernel-arch
p546
Vx86
p547
ss(Vbuild
p548
g539
tp549
(dp550
Vimage-file
p551
Varch/x86/boot/bzImage
p552
sVsigned-code
p553
I01
sVvdso
p554
I01
ss(Vdescription
p555
g539
tp556
(dp557
Vpart-long-pae
p558
VThis kernel requires PAE (Physical Address Extension).\u000aThis feature is supported by the Intel Pentium Pro/II/III/4/4M/D, Xeon,\u000aCore and Atom; AMD Geode NX, Athlon (K7), Duron, Opteron, Sempron,\u000aTurion or Phenom; Transmeta Efficeon; VIA C7; and some other processors.
p559
ss(Vimage
p560
g539
tp561
(dp562
Vbootloaders
p563
(lp564
Vgrub-pc
p565
aVgrub-efi-ia32
p566
aVextlinux
p567
asVinstall-stem
p568
Vvmlinuz
p569
sVbreaks
p570
(lp571
Vxserver-xorg-input-vmmouse (<< 1:13.0.99)
p572
ass(Vrelations
p573
g539
tp574
(dp575
Vheaders%gcc-8
p576
Vlinux-compiler-gcc-8-x86
p577
ss(Vdescription
p578
g539
NV686
p579
tp580
(dp581
Vhardware
p582
Volder PCs
p583
sVhardware-long
p584
VPCs with one or more processors not supporting PAE
p585
ss(Vdescription
p586
g539
NV686-pae
p587
tp588
(dp589
Vhardware
p590
Vmodern PCs
p591
sVhardware-long
p592
VPCs with one or more processors supporting PAE
p593
sVparts
p594
(lp595
Vpae
p596
ass(Vbase
p597
g539
Vnone
p598
tp599
(dp600
Vflavours
p601
(lp602
V686
p603
aV686-pae
p604
asVdefault-flavour
p605
V686-pae
p606
ss(Vbase
p607
g539
Vrt
p608
tp609
(dp610
Vflavours
p611
(lp612
V686-pae
p613
ass(Vbase
p614
Via64
p615
tp616
(dp617
Vdefault-flavour
p618
Vitanium
p619
sVkernel-arch
p620
Via64
p621
sg179
(lp622
g181
ass(Vbuild
p623
g615
tp624
(dp625
Vimage-file
p626
Vvmlinux.gz
p627
ss(Vimage
p628
g615
tp629
(dp630
Vbootloaders
p631
(lp632
Vgrub-efi-ia64
p633
asVinstall-stem
p634
Vvmlinuz
p635
ss(Vdescription
p636
g615
NVitanium
p637
tp638
(dp639
Vhardware
p640
VItanium (Merced)
p641
sVhardware-long
p642
Vsystems with original Itanium (Merced) processors
p643
ss(Vdescription
p644
g615
NVmckinley
p645
tp646
(dp647
Vhardware
p648
VItanium 2+
p649
sVhardware-long
p650
Vsystems with Itanium 2 or 9300/9500/9700-series processors
p651
ss(g212
g615
g181
tp652
(dp653
g215
(lp654
Vitanium
p655
aVmckinley
p656
asg219
I01
ss(Vbase
p657
Vm68k
p658
tp659
(dp660
Vcflags
p661
V-ffreestanding
p662
sVdefault-flavour
p663
Vm68k
p664
sVkernel-arch
p665
Vm68k
p666
sg179
(lp667
g181
ass(Vbuild
p668
g658
tp669
(dp670
Vimage-file
p671
Vvmlinux
p672
ss(Vimage
p673
g658
tp674
(dp675
Vsuggests
p676
(lp677
Vvmelilo
p678
aVfdutils
p679
asVinstall-stem
p680
Vvmlinux
p681
ss(Vdescription
p682
g658
NVm68k
p683
tp684
(dp685
Vhardware
p686
VMotorola MC68020+ family
p687
ss(g212
g658
g181
tp688
(dp689
g215
(lp690
Vm68k
p691
asg219
I01
ss(Vbase
p692
Vmips
p693
tp694
(dp695
Vkernel-arch
p696
Vmips
p697
sg179
(lp698
g181
ass(Vbuild
p699
g693
tp700
(dp701
Vimage-file
p702
Vvmlinuz
p703
ss(Vimage
p704
g693
tp705
(dp706
Vinstall-stem
p707
Vvmlinuz
p708
ss(Vdescription
p709
g693
NV4kc-malta
p710
tp711
(dp712
Vhardware
p713
VMIPS Malta
p714
sVhardware-long
p715
VMIPS Malta boards
p716
ss(Vimage
p717
g693
NV4kc-malta
p718
tp719
(dp720
Vconfigs
p721
(lp722
Vkernelarch-mips/config.malta
p723
aVkernelarch-mips/config.mips32r2
p724
ass(Vdescription
p725
g693
NV5kc-malta
p726
tp727
(dp728
Vhardware
p729
VMIPS Malta (64-bit)
p730
sVhardware-long
p731
VMIPS Malta boards (64-bit)
p732
ss(Vimage
p733
g693
NV5kc-malta
p734
tp735
(dp736
Vconfigs
p737
(lp738
Vkernelarch-mips/config.malta
p739
aVkernelarch-mips/config.mips64r2
p740
ass(Vdescription
p741
g693
NVocteon
p742
tp743
(dp744
Vhardware
p745
VOcteon
p746
sVhardware-long
p747
VCavium Networks Octeon
p748
ss(Vbuild
p749
g693
NVocteon
p750
tp751
(dp752
Vimage-file
p753
Vvmlinux
p754
ss(Vimage
p755
g693
NVocteon
p756
tp757
(dp758
Vinstall-stem
p759
Vvmlinux
p760
sVconfigs
p761
(lp762
Vkernelarch-mips/config.octeon
p763
ass(g212
g693
g181
tp764
(dp765
g215
(lp766
V4kc-malta
p767
aV5kc-malta
p768
aVocteon
p769
asg219
I01
ss(Vbase
p770
Vmips64
p771
tp772
(dp773
Vkernel-arch
p774
Vmips
p775
sg179
(lp776
g181
ass(Vbuild
p777
g771
tp778
(dp779
Vimage-file
p780
Vvmlinuz
p781
ss(Vimage
p782
g771
tp783
(dp784
Vinstall-stem
p785
Vvmlinuz
p786
ss(Vdescription
p787
g771
NV5kc-malta
p788
tp789
(dp790
Vhardware
p791
VMIPS Malta
p792
sVhardware-long
p793
VMIPS Malta boards
p794
ss(Vimage
p795
g771
NV5kc-malta
p796
tp797
(dp798
Vconfigs
p799
(lp800
Vkernelarch-mips/config.malta
p801
aVkernelarch-mips/config.mips64r2
p802
ass(Vdescription
p803
g771
NVocteon
p804
tp805
(dp806
Vhardware
p807
VOcteon
p808
sVhardware-long
p809
VCavium Networks Octeon
p810
ss(Vbuild
p811
g771
NVocteon
p812
tp813
(dp814
Vimage-file
p815
Vvmlinux
p816
ss(Vimage
p817
g771
NVocteon
p818
tp819
(dp820
Vinstall-stem
p821
Vvmlinux
p822
sVconfigs
p823
(lp824
Vkernelarch-mips/config.octeon
p825
ass(g212
g771
g181
tp826
(dp827
g215
(lp828
V5kc-malta
p829
aVocteon
p830
asg219
I01
ss(Vbase
p831
Vmips64el
p832
tp833
(dp834
Vkernel-arch
p835
Vmips
p836
sg179
(lp837
g181
ass(Vbuild
p838
g832
tp839
(dp840
Vimage-file
p841
Vvmlinuz
p842
ss(Vimage
p843
g832
tp844
(dp845
Vinstall-stem
p846
Vvmlinuz
p847
ss(Vdescription
p848
g832
NV5kc-malta
p849
tp850
(dp851
Vhardware
p852
VMIPS Malta
p853
sVhardware-long
p854
VMIPS Malta boards
p855
ss(Vimage
p856
g832
NV5kc-malta
p857
tp858
(dp859
Vconfigs
p860
(lp861
Vkernelarch-mips/config.malta
p862
aVkernelarch-mips/config.mips64r2
p863
ass(Vdescription
p864
g832
NVloongson-3
p865
tp866
(dp867
Vhardware
p868
VLoongson 3A/3B
p869
sVhardware-long
p870
VLoongson 3A or 3B based systems (e.g. from Loongson or Lemote)
p871
ss(Vimage
p872
g832
NVloongson-3
p873
tp874
(dp875
Vconfigs
p876
(lp877
Vkernelarch-mips/config.loongson-3
p878
ass(Vdescription
p879
g832
NVocteon
p880
tp881
(dp882
Vhardware
p883
VOcteon
p884
sVhardware-long
p885
VCavium Networks Octeon
p886
ss(Vbuild
p887
g832
NVocteon
p888
tp889
(dp890
Vimage-file
p891
Vvmlinux
p892
ss(Vimage
p893
g832
NVocteon
p894
tp895
(dp896
Vinstall-stem
p897
Vvmlinux
p898
sVconfigs
p899
(lp900
Vkernelarch-mips/config.octeon
p901
ass(g212
g832
g181
tp902
(dp903
g215
(lp904
V5kc-malta
p905
aVloongson-3
p906
aVocteon
p907
asg219
I01
ss(Vbase
p908
Vmips64r6
p909
tp910
(dp911
Vdefault-flavour
p912
Vmips64r6
p913
sVkernel-arch
p914
Vmips
p915
sg179
(lp916
g181
ass(Vbuild
p917
g909
tp918
(dp919
Vimage-file
p920
Vvmlinux
p921
ss(Vimage
p922
g909
tp923
(dp924
Vinstall-stem
p925
Vvmlinux
p926
ss(Vdescription
p927
g909
NVmips64r6
p928
tp929
(dp930
Vhardware
p931
VMIPS R6 (64 bit, big endian)
p932
sVhardware-long
p933
VMIPS R6 (64 bit, big endian)
p934
ss(Vimage
p935
g909
NVmips64r6
p936
tp937
(dp938
Vconfigs
p939
(lp940
Vkernelarch-mips/config.boston
p941
aVkernelarch-mips/config.mips64r6
p942
ass(g212
g909
g181
tp943
(dp944
g215
(lp945
Vmips64r6
p946
asg219
I01
ss(Vbase
p947
Vmips64r6el
p948
tp949
(dp950
Vdefault-flavour
p951
Vmips64r6el
p952
sVkernel-arch
p953
Vmips
p954
sg179
(lp955
g181
ass(Vbuild
p956
g948
tp957
(dp958
Vimage-file
p959
Vvmlinux
p960
ss(Vimage
p961
g948
tp962
(dp963
Vinstall-stem
p964
Vvmlinux
p965
ss(Vdescription
p966
g948
NVmips64r6el
p967
tp968
(dp969
Vhardware
p970
VMIPS R6 (64 bit, little endian)
p971
sVhardware-long
p972
VMIPS R6 (64 bit, little endian)
p973
ss(Vimage
p974
g948
NVmips64r6el
p975
tp976
(dp977
Vconfigs
p978
(lp979
Vkernelarch-mips/config.boston
p980
aVkernelarch-mips/config.mips64r6
p981
ass(g212
g948
g181
tp982
(dp983
g215
(lp984
Vmips64r6el
p985
asg219
I01
ss(Vbase
p986
Vmipsel
p987
tp988
(dp989
Vkernel-arch
p990
Vmips
p991
sg179
(lp992
g181
ass(Vbuild
p993
g987
tp994
(dp995
Vimage-file
p996
Vvmlinuz
p997
ss(Vimage
p998
g987
tp999
(dp1000
Vinstall-stem
p1001
Vvmlinuz
p1002
ss(Vdescription
p1003
g987
NV4kc-malta
p1004
tp1005
(dp1006
Vhardware
p1007
VMIPS Malta
p1008
sVhardware-long
p1009
VMIPS Malta boards
p1010
ss(Vimage
p1011
g987
NV4kc-malta
p1012
tp1013
(dp1014
Vconfigs
p1015
(lp1016
Vkernelarch-mips/config.malta
p1017
aVkernelarch-mips/config.mips32r2
p1018
ass(Vdescription
p1019
g987
NV5kc-malta
p1020
tp1021
(dp1022
Vhardware
p1023
VMIPS Malta (64-bit)
p1024
sVhardware-long
p1025
VMIPS Malta boards (64-bit)
p1026
ss(Vimage
p1027
g987
NV5kc-malta
p1028
tp1029
(dp1030
Vconfigs
p1031
(lp1032
Vkernelarch-mips/config.malta
p1033
aVkernelarch-mips/config.mips64r2
p1034
ass(Vdescription
p1035
g987
NVloongson-3
p1036
tp1037
(dp1038
Vhardware
p1039
VLoongson 3A/3B
p1040
sVhardware-long
p1041
VLoongson 3A or 3B based systems (e.g. from Loongson or Lemote)
p1042
ss(Vimage
p1043
g987
NVloongson-3
p1044
tp1045
(dp1046
Vconfigs
p1047
(lp1048
Vkernelarch-mips/config.loongson-3
p1049
ass(Vdescription
p1050
g987
NVocteon
p1051
tp1052
(dp1053
Vhardware
p1054
VOcteon
p1055
sVhardware-long
p1056
VCavium Networks Octeon
p1057
ss(Vbuild
p1058
g987
NVocteon
p1059
tp1060
(dp1061
Vimage-file
p1062
Vvmlinux
p1063
ss(Vimage
p1064
g987
NVocteon
p1065
tp1066
(dp1067
Vinstall-stem
p1068
Vvmlinux
p1069
sVconfigs
p1070
(lp1071
Vkernelarch-mips/config.octeon
p1072
ass(g212
g987
g181
tp1073
(dp1074
g215
(lp1075
V4kc-malta
p1076
aV5kc-malta
p1077
aVloongson-3
p1078
aVocteon
p1079
asg219
I01
ss(Vbase
p1080
Vmipsn32
p1081
tp1082
(dp1083
Vkernel-arch
p1084
Vmips
p1085
sVfeaturesets
p1086
(lp1087
ss(Vbase
p1088
Vmipsn32el
p1089
tp1090
(dp1091
Vkernel-arch
p1092
Vmips
p1093
sVfeaturesets
p1094
(lp1095
ss(Vbase
p1096
Vmipsn32r6
p1097
tp1098
(dp1099
Vkernel-arch
p1100
Vmips
p1101
sVfeaturesets
p1102
(lp1103
ss(Vbase
p1104
Vmipsn32r6el
p1105
tp1106
(dp1107
Vkernel-arch
p1108
Vmips
p1109
sVfeaturesets
p1110
(lp1111
ss(Vbase
p1112
Vmipsr6
p1113
tp1114
(dp1115
Vdefault-flavour
p1116
Vmips32r6
p1117
sVkernel-arch
p1118
Vmips
p1119
sg179
(lp1120
g181
ass(Vbuild
p1121
g1113
tp1122
(dp1123
Vimage-file
p1124
Vvmlinux
p1125
ss(Vimage
p1126
g1113
tp1127
(dp1128
Vinstall-stem
p1129
Vvmlinux
p1130
ss(Vdescription
p1131
g1113
NVmips32r6
p1132
tp1133
(dp1134
Vhardware
p1135
VMIPS R6 (32 bit, big endian)
p1136
sVhardware-long
p1137
VMIPS R6 (32 bit, big endian)
p1138
ss(Vimage
p1139
g1113
NVmips32r6
p1140
tp1141
(dp1142
Vconfigs
p1143
(lp1144
Vkernelarch-mips/config.boston
p1145
aVkernelarch-mips/config.mips32r6
p1146
ass(Vdescription
p1147
g1113
NVmips64r6
p1148
tp1149
(dp1150
Vhardware
p1151
VMIPS R6 (64 bit, big endian)
p1152
sVhardware-long
p1153
VMIPS R6 (64 bit, big endian)
p1154
ss(Vimage
p1155
g1113
NVmips64r6
p1156
tp1157
(dp1158
Vconfigs
p1159
(lp1160
Vkernelarch-mips/config.boston
p1161
aVkernelarch-mips/config.mips64r6
p1162
ass(g212
g1113
g181
tp1163
(dp1164
g215
(lp1165
Vmips32r6
p1166
aVmips64r6
p1167
asg219
I01
ss(Vbase
p1168
Vmipsr6el
p1169
tp1170
(dp1171
Vdefault-flavour
p1172
Vmips32r6el
p1173
sVkernel-arch
p1174
Vmips
p1175
sg179
(lp1176
g181
ass(Vbuild
p1177
g1169
tp1178
(dp1179
Vimage-file
p1180
Vvmlinux
p1181
ss(Vimage
p1182
g1169
tp1183
(dp1184
Vinstall-stem
p1185
Vvmlinux
p1186
ss(Vdescription
p1187
g1169
NVmips32r6el
p1188
tp1189
(dp1190
Vhardware
p1191
VMIPS R6 (32 bit, little endian)
p1192
sVhardware-long
p1193
VMIPS R6 (32 bit, little endian)
p1194
ss(Vimage
p1195
g1169
NVmips32r6el
p1196
tp1197
(dp1198
Vconfigs
p1199
(lp1200
Vkernelarch-mips/config.boston
p1201
aVkernelarch-mips/config.mips32r6
p1202
ass(Vdescription
p1203
g1169
NVmips64r6el
p1204
tp1205
(dp1206
Vhardware
p1207
VMIPS R6 (64 bit, little endian)
p1208
sVhardware-long
p1209
VMIPS R6 (64 bit, little endian)
p1210
ss(Vimage
p1211
g1169
NVmips64r6el
p1212
tp1213
(dp1214
Vconfigs
p1215
(lp1216
Vkernelarch-mips/config.boston
p1217
aVkernelarch-mips/config.mips64r6
p1218
ass(g212
g1169
g181
tp1219
(dp1220
g215
(lp1221
Vmips32r6el
p1222
aVmips64r6el
p1223
asg219
I01
ss(Vbase
p1224
Vpowerpc
p1225
tp1226
(dp1227
Vkernel-arch
p1228
Vpowerpc
p1229
sg179
(lp1230
g181
ass(Vbuild
p1231
g1225
tp1232
(dp1233
Vimage-file
p1234
Vvmlinux
p1235
sVvdso
p1236
I01
ss(Vimage
p1237
g1225
tp1238
(dp1239
Vconfigs
p1240
(lp1241
sVbootloaders
p1242
(lp1243
Vgrub-ieee1275
p1244
asVsuggests
p1245
(lp1246
Vmkvmlinuz
p1247
asVinstall-stem
p1248
Vvmlinux
p1249
ss(Vdescription
p1250
g1225
NVpowerpc
p1251
tp1252
(dp1253
Vhardware
p1254
Vuniprocessor 32-bit PowerPC
p1255
ss(Vdescription
p1256
g1225
NVpowerpc-smp
p1257
tp1258
(dp1259
Vhardware
p1260
Vmultiprocessor 32-bit PowerPC
p1261
ss(Vimage
p1262
g1225
NVpowerpc-smp
p1263
tp1264
(dp1265
Vconfigs
p1266
(lp1267
Vpowerpc/config.powerpc
p1268
aVpowerpc/config.powerpc-smp
p1269
ass(Vdescription
p1270
g1225
NVpowerpc64
p1271
tp1272
(dp1273
Vhardware
p1274
V64-bit PowerPC
p1275
ss(Vimage
p1276
g1225
NVpowerpc64
p1277
tp1278
(dp1279
Vconfigs
p1280
(lp1281
Vkernelarch-powerpc/config-arch-64
p1282
aVkernelarch-powerpc/config-arch-64-be
p1283
ass(g212
g1225
g181
tp1284
(dp1285
g215
(lp1286
Vpowerpc
p1287
aVpowerpc-smp
p1288
aVpowerpc64
p1289
asg219
I01
ss(Vbase
p1290
Vppc64
p1291
tp1292
(dp1293
Vdefault-flavour
p1294
Vpowerpc64
p1295
sVkernel-arch
p1296
Vpowerpc
p1297
sg179
(lp1298
g181
ass(Vbuild
p1299
g1291
tp1300
(dp1301
Vimage-file
p1302
Vvmlinux
p1303
sVvdso
p1304
I01
ss(Vimage
p1305
g1291
tp1306
(dp1307
Vconfigs
p1308
(lp1309
sVbootloaders
p1310
(lp1311
Vgrub-ieee1275
p1312
asVsuggests
p1313
(lp1314
Vmkvmlinuz
p1315
asVinstall-stem
p1316
Vvmlinux
p1317
ss(Vdescription
p1318
g1291
NVpowerpc64
p1319
tp1320
(dp1321
Vhardware
p1322
V64-bit PowerPC
p1323
ss(Vimage
p1324
g1291
NVpowerpc64
p1325
tp1326
(dp1327
Vconfigs
p1328
(lp1329
Vkernelarch-powerpc/config-arch-64
p1330
aVkernelarch-powerpc/config-arch-64-be
p1331
ass(g212
g1291
g181
tp1332
(dp1333
g215
(lp1334
Vpowerpc64
p1335
asg219
I01
ss(Vbase
p1336
Vppc64el
p1337
tp1338
(dp1339
Vdefault-flavour
p1340
Vpowerpc64le
p1341
sVkernel-arch
p1342
Vpowerpc
p1343
sg179
(lp1344
g181
ass(Vbuild
p1345
g1337
tp1346
(dp1347
Vimage-file
p1348
Vvmlinux
p1349
sVvdso
p1350
I01
ss(Vimage
p1351
g1337
tp1352
(dp1353
Vconfigs
p1354
(lp1355
sVbootloaders
p1356
(lp1357
Vgrub-ieee1275
p1358
asVsuggests
p1359
(lp1360
Vmkvmlinuz
p1361
asVinstall-stem
p1362
Vvmlinux
p1363
ss(Vdescription
p1364
g1337
NVpowerpc64le
p1365
tp1366
(dp1367
Vhardware
p1368
VLittle-endian 64-bit PowerPC
p1369
ss(Vimage
p1370
g1337
NVpowerpc64le
p1371
tp1372
(dp1373
Vconfigs
p1374
(lp1375
Vkernelarch-powerpc/config-arch-64
p1376
aVkernelarch-powerpc/config-arch-64-le
p1377
ass(g212
g1337
g181
tp1378
(dp1379
g215
(lp1380
Vpowerpc64le
p1381
asg219
I01
ss(Vbase
p1382
Vriscv64
p1383
tp1384
(dp1385
Vkernel-arch
p1386
Vriscv
p1387
sVfeaturesets
p1388
(lp1389
Vnone
p1390
ass(Vbuild
p1391
g1383
tp1392
(dp1393
Vimage-file
p1394
Varch/riscv/boot/Image
p1395
sVvdso
p1396
I01
ss(Vimage
p1397
g1383
tp1398
(dp1399
Vinstall-stem
p1400
Vvmlinux
p1401
ss(Vdescription
p1402
g1383
NVriscv64
p1403
tp1404
(dp1405
Vhardware
p1406
V64-bit RISC-V platforms
p1407
sVhardware-long
p1408
V64-bit RISC-V platforms
p1409
ss(Vbase
p1410
g1383
Vnone
p1411
tp1412
(dp1413
Vflavours
p1414
(lp1415
Vriscv64
p1416
asVdefault-flavour
p1417
Vriscv64
p1418
ss(Vbase
p1419
Vs390
p1420
tp1421
(dp1422
Vkernel-arch
p1423
Vs390
p1424
sVfeaturesets
p1425
(lp1426
ss(Vbase
p1427
Vs390x
p1428
tp1429
(dp1430
Vdefault-flavour
p1431
Vs390x
p1432
sVkernel-arch
p1433
Vs390
p1434
sg179
(lp1435
g181
ass(Vbuild
p1436
g1428
tp1437
(dp1438
Vimage-file
p1439
Varch/s390/boot/bzImage
p1440
sVvdso
p1441
I01
ss(Vimage
p1442
g1428
tp1443
(dp1444
Vbootloaders
p1445
(lp1446
Vs390-tools
p1447
asVinstall-stem
p1448
Vvmlinuz
p1449
ss(Vrelations
p1450
g1428
tp1451
(dp1452
Vheaders%gcc-10
p1453
Vlinux-compiler-gcc-10-s390
p1454
ss(Vdescription
p1455
g1428
NVs390x
p1456
tp1457
(dp1458
Vhardware
p1459
VIBM zSeries
p1460
ss(g212
g1428
g181
tp1461
(dp1462
g215
(lp1463
Vs390x
p1464
asg219
I01
ss(Vbase
p1465
Vsh3
p1466
tp1467
(dp1468
Vkernel-arch
p1469
Vsh
p1470
sVfeaturesets
p1471
(lp1472
ss(Vbase
p1473
Vsh4
p1474
tp1475
(dp1476
Vkernel-arch
p1477
Vsh
p1478
sg179
(lp1479
g181
ass(Vbuild
p1480
g1474
tp1481
(dp1482
Vimage-file
p1483
Varch/sh/boot/zImage
p1484
ss(Vimage
p1485
g1474
tp1486
(dp1487
Vinstall-stem
p1488
Vvmlinuz
p1489
ss(Vdescription
p1490
g1474
NVsh7751r
p1491
tp1492
(dp1493
Vhardware
p1494
Vsh7751r
p1495
sVhardware-long
p1496
VRenesas SH7751R R2D plus board
p1497
ss(Vdescription
p1498
g1474
NVsh7785lcr
p1499
tp1500
(dp1501
Vhardware
p1502
Vsh7785lcr
p1503
sVhardware-long
p1504
VRenesas SH7785 reference board
p1505
ss(Vimage
p1506
g1474
NVsh7785lcr
p1507
tp1508
(dp1509
Vrecommends
p1510
(lp1511
Vu-boot-tools
p1512
asVcheck-size
p1513
I4194304
ss(g212
g1474
g181
tp1514
(dp1515
g215
(lp1516
Vsh7751r
p1517
aVsh7785lcr
p1518
asg219
I01
ss(Vbase
p1519
Vsparc
p1520
tp1521
(dp1522
Vkernel-arch
p1523
Vsparc
p1524
sVfeaturesets
p1525
(lp1526
ss(Vbase
p1527
Vsparc64
p1528
tp1529
(dp1530
Vdefault-flavour
p1531
Vsparc64-smp
p1532
sVkernel-arch
p1533
Vsparc
p1534
sg179
(lp1535
g181
ass(Vbuild
p1536
g1528
tp1537
(dp1538
Vimage-file
p1539
Vvmlinux
p1540
ss(Vimage
p1541
g1528
tp1542
(dp1543
Vconfigs
p1544
(lp1545
sVbootloaders
p1546
(lp1547
Vgrub-ieee1275
p1548
asVsuggests
p1549
(lp1550
Vfdutils
p1551
asVinstall-stem
p1552
Vvmlinux
p1553
ss(Vdescription
p1554
g1528
NVsparc64
p1555
tp1556
(dp1557
Vhardware
p1558
Vuniprocessor 64-bit UltraSPARC
p1559
ss(Vimage
p1560
g1528
NVsparc64
p1561
tp1562
(dp1563
Vconfigs
p1564
(lp1565
Vkernelarch-sparc/config-up
p1566
ass(Vdescription
p1567
g1528
NVsparc64-smp
p1568
tp1569
(dp1570
Vhardware
p1571
Vmultiprocessor 64-bit UltraSPARC
p1572
ss(Vimage
p1573
g1528
NVsparc64-smp
p1574
tp1575
(dp1576
Vconfigs
p1577
(lp1578
Vkernelarch-sparc/config-smp
p1579
ass(g212
g1528
g181
tp1580
(dp1581
g215
(lp1582
Vsparc64
p1583
aVsparc64-smp
p1584
asg219
I01
ss(Vbase
p1585
Vx32
p1586
tp1587
(dp1588
Vkernel-arch
p1589
Vx86
p1590
sVfeaturesets
p1591
(lp1592
ss(Vabi
p1593
NVrt
p1594
tp1595
(dp1596
Vignore-changes
p1597
(lp1598
V*
p1599
ass(Vdescription
p1600
Ng1594
tp1601
(dp1602
Vpart-long-rt
p1603
VThis kernel includes the PREEMPT_RT realtime patch set.
p1604
sVpart-short-rt
p1605
VPREEMPT_RT
p1606
sVparts
p1607
(lp1608
Vrt
p1609
ass(Vversion
p1610
tp1611
(dp1612
Vsource
p1613
V5.10.4-1pexip1
p1614
sVupstream
p1615
V5.10
p1616
sVabiname_base
p1617
V5.10.0
p1618
sVabiname
p1619
V5.10.0-1pexip1
p1620
ss.