cdebian_linux.config
ConfigCore
p0
(tRp1
(Vbase
p2
tp3
(dp4
Varches
p5
(lp6
Valpha
p7
aVamd64
p8
aVarm64
p9
aVarm64ilp32
p10
aVarmel
p11
aVarmhf
p12
aVhppa
p13
aVi386
p14
aVia64
p15
aVm68k
p16
aVmips
p17
aVmips64
p18
aVmips64el
p19
aVmips64r6
p20
aVmips64r6el
p21
aVmipsel
p22
aVmipsn32
p23
aVmipsn32el
p24
aVmipsn32r6
p25
aVmipsn32r6el
p26
aVmipsr6
p27
aVmipsr6el
p28
aVpowerpc
p29
aVpowerpcspe
p30
aVppc64
p31
aVppc64el
p32
aVriscv64
p33
aVs390
p34
aVs390x
p35
aVsh3
p36
aVsh4
p37
aVsparc
p38
aVsparc64
p39
aVx32
p40
asVfeaturesets
p41
(lp42
Vnone
p43
aVrt
p44
asVcompiler
p45
Vgcc-8
p46
ss(Vbuild
p47
tp48
(dp49
Vsigned-code
p50
I00
sVdebug-info
p51
I01
ss(Vbase
p52
NVrt
p53
tp54
(dp55
Venabled
p56
I00
ss(Vdescription
p57
tp58
(dp59
Vpart-long-up
p60
VThis kernel is not suitable for SMP (multi-processor,\u000amulti-core or hyper-threaded) systems.
p61
ss(Vrelations
p62
tp63
(dp64
Vinitramfs-tools
p65
Vinitramfs-tools (>= 0.120+deb8u2)
p66
sVgcc-8
p67
Vgcc-8 <!stage1 !cross>, gcc-8-@gnu-type-package@ <!stage1 cross>
p68
sVinitramfs-fallback
p69
Vlinux-initramfs-tool
p70
ss(Vimage
p71
tp72
(dp73
Vinitramfs-generators
p74
(lp75
Vinitramfs-tools
p76
aVinitramfs-fallback
p77
asVrecommends
p78
Vapparmor
p79
ss(Vabi
p80
tp81
(dp82
Vabiname
p83
V1pexip1
p84
sVignore-changes
p85
(lp86
V__cpuhp_*
p87
aV__xive_vm_h_*
p88
aVbpf_analyzer
p89
aVcxl_*
p90
aVdax_flush
p91
aVieee80211_nullfunc_get
p92
aVinet_add_protocol
p93
aVinet_del_protocol
p94
aViommu_device_*
p95
aVkvm_async_pf_task_wait
p96
aVkvmppc_*
p97
aVmm_iommu_*
p98
aVmv_mbus_*
p99
aVperf_*
p100
aVregister_cxl_calls
p101
aVregister_key_type
p102
aVunregister_cxl_calls
p103
aV*_hw_breakpoint
p104
aVmodule:arch/x86/kvm/*
p105
aVmodule:drivers/crypto/ccp/*
p106
aVmodule:drivers/hv/*
p107
aVmodule:drivers/gpu/drm/sun4i/*
p108
aVmodule:drivers/iio/**
p109
aVmodule:drivers/misc/cxl/*
p110
aVmodule:drivers/mtd/nand/*
p111
aVmodule:drivers/net/ethernet/**
p112
aVmodule:drivers/net/wireless/**
p113
aVmodule:drivers/nvdimm/*
p114
aVmodule:drivers/power/supply/bq27xxx_battery
p115
aVmodule:drivers/scsi/cxgbi/*
p116
aVmodule:drivers/scsi/libiscs*
p117
aVmodule:drivers/scsi/qla2xxx/qla2xxx
p118
aVmodule:drivers/scsi/ufs/*
p119
aVmodule:drivers/target/**
p120
aVmodule:drivers/usb/chipidea/**
p121
aVmodule:drivers/usb/gadget/**
p122
aVmodule:drivers/usb/host/**
p123
aVmodule:drivers/usb/musb/**
p124
aVmodule:fs/nfs/**
p125
aVmodule:net/ceph/libceph
p126
aVmodule:net/l2tp/**
p127
aVmodule:net/rxrpc/rxrpc
p128
aVmodule:net/sctp/**
p129
aVmodule:sound/core/seq/**
p130
aVmodule:sound/firewire/snd-firewire-lib
p131
aVmodule:sound/pci/hda/*
p132
aVbtree_*
p133
aVvisitor*
p134
aVcan_rx_register
p135
aVip6_xmit
p136
aVmodule:net/dccp/dccp
p137
aVmodule:net/rds/rds
p138
aVdevfreq_*
p139
aVdevm_devfreq_*
p140
aVupdate_devfreq
p141
aVmodule:drivers/infiniband/**
p142
aVacpi_ec_add_query_handler
p143
aVacpi_ec_remove_query_handler
p144
aVfirst_ec
p145
aVdebugfs_create_automount
p146
aVmodule:drivers/iio/imu/inv_mpu6050/*
p147
aVdrm_crtc_accurate_vblank_count
p148
aVacpi_nfit_desc_init
p149
aVacpi_nfit_init
p150
aVloop_register_transfer
p151
aVxen_xlate_*
p152
aVnf_nat_masquerade_ipv4_register_notifier
p153
aVnf_nat_masquerade_ipv6_register_notifier
p154
ass(Vbase
p155
Valpha
p156
tp157
(dp158
Vfeaturesets
p159
(lp160
Vnone
p161
asVkernel-arch
p162
Valpha
p163
ss(Vdescription
p164
g156
NValpha-smp
p165
tp166
(dp167
Vhardware
p168
VAlpha SMP
p169
sVhardware-long
p170
VDEC Alpha SMP systems with extended kernel start address (Wildfire, Titan, Marvel)
p171
ss(Vbuild
p172
g156
tp173
(dp174
Vimage-file
p175
Varch/alpha/boot/vmlinux.gz
p176
ss(Vdescription
p177
g156
NValpha-generic
p178
tp179
(dp180
Vhardware
p181
VAlpha
p182
sVhardware-long
p183
VDEC Alpha systems with extended kernel start address (Wildfire, Titan, Marvel)
p184
ss(Vimage
p185
g156
tp186
(dp187
Vsuggests
p188
Vaboot, fdutils
p189
sVinstall-stem
p190
Vvmlinuz
p191
ss(Vbase
p192
g156
g161
tp193
(dp194
Vflavours
p195
(lp196
Valpha-generic
p197
aValpha-smp
p198
asVimplicit-flavour
p199
I01
ss(Vbase
p200
Vamd64
p201
tp202
(dp203
Vfeaturesets
p204
(lp205
Vnone
p206
aVrt
p207
asVkernel-arch
p208
Vx86
p209
ss(Vbuild
p210
g201
tp211
(dp212
Vsigned-code
p213
I00
sVimage-file
p214
Varch/x86/boot/bzImage
p215
sVdebug-info
p216
I01
sVvdso
p217
I01
ss(Vdescription
p218
g201
NVamd64
p219
tp220
(dp221
Vhardware
p222
V64-bit PCs
p223
sVhardware-long
p224
VPCs with AMD64, Intel 64 or VIA Nano processors
p225
ss(Vrelations
p226
g201
tp227
(dp228
Vgcc-8
p229
Vgcc-8 (>= 8-20180123-1~) <!stage1 !cross>, gcc-8-x86-64-linux-gnu (>= 8-20180123-1~) <!stage1 cross>
p230
sVheaders%gcc-8
p231
Vlinux-compiler-gcc-8-x86
p232
ss(Vdescription
p233
g201
NVcloud-amd64
p234
tp235
(dp236
Vhardware
p237
Vx86-64 cloud
p238
sVhardware-long
p239
VAmazon EC2, Google Compute Engine and Microsoft Azure cloud platforms
p240
ss(Vimage
p241
g201
tp242
(dp243
Vbreaks
p244
Vxserver-xorg-input-vmmouse (<< 1:13.0.99)
p245
sVinstall-stem
p246
Vvmlinuz
p247
sVbootloaders
p248
(lp249
Vgrub-pc
p250
aVgrub-efi-amd64
p251
aVextlinux
p252
ass(Vbase
p253
g201
Vnone
p254
tp255
(dp256
Vflavours
p257
(lp258
Vamd64
p259
aVcloud-amd64
p260
ass(Vbase
p261
g201
Vrt
p262
tp263
(dp264
Vflavours
p265
(lp266
Vamd64
p267
ass(Vbase
p268
Varm64
p269
tp270
(dp271
Vfeaturesets
p272
(lp273
Vnone
p274
aVrt
p275
asVkernel-arch
p276
Varm64
p277
ss(Vdescription
p278
g269
NVarm64
p279
tp280
(dp281
Vhardware
p282
V64-bit ARMv8 machines
p283
ss(Vbuild
p284
g269
tp285
(dp286
Vsigned-code
p287
I01
sVimage-file
p288
Varch/arm64/boot/Image
p289
sVdebug-info
p290
I01
sVvdso
p291
I01
ss(Vimage
p292
g269
NVarm64
p293
tp294
(dp295
s(Vimage
p296
g269
tp297
(dp298
Vbreaks
p299
Vlibmozjs185-1.0, libmozjs-24-0 (<< 24.2.0-5.1~)
p300
sVinstall-stem
p301
Vvmlinuz
p302
ss(Vbase
p303
g269
Vnone
p304
tp305
(dp306
Vflavours
p307
(lp308
Varm64
p309
ass(Vbase
p310
g269
Vrt
p311
tp312
(dp313
Vflavours
p314
(lp315
Varm64
p316
ass(Vbase
p317
Varm64ilp32
p318
tp319
(dp320
Vfeaturesets
p321
(lp322
sVkernel-arch
p323
Varm64
p324
ss(Vbase
p325
Varmel
p326
tp327
(dp328
g159
(lp329
g161
asVkernel-arch
p330
Varm
p331
ss(Vbuild
p332
g326
tp333
(dp334
Vimage-file
p335
Varch/arm/boot/zImage
p336
sVuncompressed-image-file
p337
Varch/arm/boot/Image
p338
ss(Vimage
p339
g326
NVmarvell
p340
tp341
(dp342
Vrecommends
p343
Vu-boot-tools
p344
sVbreaks
p345
Vflash-kernel (<< 3.57~)
p346
sVcheck-size-with-dtb
p347
I01
sVcheck-size
p348
L2097080L
sVcheck-uncompressed-size
p349
L7340032L
ss(Vdescription
p350
g326
NVmarvell
p351
tp352
(dp353
Vhardware
p354
VMarvell Kirkwood/Orion
p355
sVhardware-long
p356
VMarvell Kirkwood and Orion based systems (https://wiki.debian.org/ArmEabiPort#Supported_hardware)
p357
ss(Vrelations
p358
g326
tp359
(dp360
Vheaders%gcc-8
p361
Vlinux-compiler-gcc-8-arm
p362
ss(Vimage
p363
g326
tp364
(dp365
Vinstall-stem
p366
Vvmlinuz
p367
ss(g192
g326
g161
tp368
(dp369
g195
(lp370
Vmarvell
p371
asg199
I01
ss(Vbase
p372
Varmhf
p373
tp374
(dp375
Vfeaturesets
p376
(lp377
Vnone
p378
aVrt
p379
asVkernel-arch
p380
Varm
p381
ss(Vdescription
p382
g373
NVarmmp
p383
tp384
(dp385
Vhardware
p386
VARMv7 multiplatform compatible SoCs
p387
sVhardware-long
p388
VARMv7 multiplatform kernel. See\u000ahttps://wiki.debian.org/DebianKernel/ARMMP for details of supported\u000aplatforms
p389
ss(Vbuild
p390
g373
tp391
(dp392
Vvdso
p393
I01
sVimage-file
p394
Varch/arm/boot/zImage
p395
ss(Vdescription
p396
g373
NVarmmp-lpae
p397
tp398
(dp399
Vhardware
p400
VARMv7 multiplatform compatible SoCs supporting LPAE
p401
sVhardware-long
p402
VARMv7 multiplatform kernel supporting LPAE. See\u000ahttps://wiki.debian.org/DebianKernel/ARMMP for details of supported\u000aplatforms.
p403
ss(Vrelations
p404
g373
tp405
(dp406
Vheaders%gcc-8
p407
Vlinux-compiler-gcc-8-arm
p408
ss(Vimage
p409
g373
tp410
(dp411
Vinstall-stem
p412
Vvmlinuz
p413
ss(Vbase
p414
g373
Vnone
p415
tp416
(dp417
Vflavours
p418
(lp419
Varmmp
p420
aVarmmp-lpae
p421
ass(Vbase
p422
g373
Vrt
p423
tp424
(dp425
Vflavours
p426
(lp427
Varmmp
p428
ass(Vbase
p429
Vhppa
p430
tp431
(dp432
g159
(lp433
g161
asVkernel-arch
p434
Vparisc
p435
ss(Vbuild
p436
g430
tp437
(dp438
Vdebug-info
p439
I00
sVimage-file
p440
Varch/parisc/boot/bzImage
p441
ss(Vdescription
p442
g430
NVparisc64-smp
p443
tp444
(dp445
Vhardware
p446
Vmultiprocessor 64-bit PA-RISC
p447
sVhardware-long
p448
VHP PA-RISC 64-bit SMP systems with support for more than 4 GB RAM
p449
ss(Vrelations
p450
g430
tp451
(dp452
Vgcc-8
p453
Vgcc-8 <!stage1 !cross>, gcc-8-hppa-linux-gnu <!stage1 cross>, binutils-hppa64-linux-gnu <!stage1>, gcc-8-hppa64-linux-gnu <!stage1>
p454
ss(Vbase
p455
g430
NVparisc64-smp
p456
tp457
(dp458
Vcflags
p459
V-fno-cse-follow-jumps
p460
sVoverride-host-type
p461
Vhppa64-linux-gnu
p462
ss(Vdescription
p463
g430
NVparisc-smp
p464
tp465
(dp466
Vhardware
p467
Vmultiprocessor 32-bit PA-RISC
p468
sVhardware-long
p469
VHP PA-RISC 32-bit SMP systems with max 4 GB RAM
p470
ss(Vdescription
p471
g430
NVparisc
p472
tp473
(dp474
Vhardware
p475
V32-bit PA-RISC
p476
sVhardware-long
p477
VHP PA-RISC 32-bit systems with max 4 GB RAM
p478
ss(Vimage
p479
g430
tp480
(dp481
Vsuggests
p482
Vpalo
p483
sVinstall-stem
p484
Vvmlinuz
p485
ss(g192
g430
g161
tp486
(dp487
g195
(lp488
Vparisc
p489
aVparisc-smp
p490
aVparisc64-smp
p491
asg199
I01
ss(Vbase
p492
Vi386
p493
tp494
(dp495
Vfeaturesets
p496
(lp497
Vnone
p498
aVrt
p499
asVkernel-arch
p500
Vx86
p501
ss(Vbuild
p502
g493
tp503
(dp504
Vsigned-code
p505
I01
sVimage-file
p506
Varch/x86/boot/bzImage
p507
sVvdso
p508
I01
ss(Vdescription
p509
g493
NV686-pae
p510
tp511
(dp512
Vhardware
p513
Vmodern PCs
p514
sVhardware-long
p515
VPCs with one or more processors supporting PAE
p516
sVparts
p517
(lp518
Vpae
p519
ass(Vdescription
p520
g493
tp521
(dp522
Vpart-long-pae
p523
VThis kernel requires PAE (Physical Address Extension).\u000aThis feature is supported by the Intel Pentium Pro/II/III/4/4M/D, Xeon,\u000aCore and Atom; AMD Geode NX, Athlon (K7), Duron, Opteron, Sempron,\u000aTurion or Phenom; Transmeta Efficeon; VIA C7; and some other processors.
p524
ss(Vbuild
p525
g493
NV686-pae
p526
tp527
(dp528
Vdebug-info
p529
I01
ss(Vdescription
p530
g493
NV686
p531
tp532
(dp533
Vhardware
p534
Volder PCs
p535
sVhardware-long
p536
VPCs with one or more processors not supporting PAE
p537
ss(Vrelations
p538
g493
tp539
(dp540
Vgcc-8
p541
Vgcc-8 (>= 8-20180123-1~) <!stage1 !cross>, gcc-8-x86-64-linux-gnu (>= 8-20180123-1~) <!stage1 cross>
p542
sVheaders%gcc-8
p543
Vlinux-compiler-gcc-8-x86
p544
ss(Vimage
p545
g493
tp546
(dp547
Vbreaks
p548
Vxserver-xorg-input-vmmouse (<< 1:13.0.99)
p549
sVinstall-stem
p550
Vvmlinuz
p551
sVbootloaders
p552
(lp553
Vgrub-pc
p554
aVextlinux
p555
ass(Vbase
p556
g493
Vnone
p557
tp558
(dp559
Vflavours
p560
(lp561
V686
p562
aV686-pae
p563
ass(Vbase
p564
g493
Vrt
p565
tp566
(dp567
Vflavours
p568
(lp569
V686-pae
p570
ass(Vbase
p571
Via64
p572
tp573
(dp574
g159
(lp575
g161
asVkernel-arch
p576
Via64
p577
ss(Vdescription
p578
g572
NVitanium
p579
tp580
(dp581
Vhardware
p582
VItanium (Merced)
p583
sVhardware-long
p584
Vsystems with original Itanium (Merced) processors
p585
ss(Vbuild
p586
g572
tp587
(dp588
Vimage-file
p589
Vvmlinux.gz
p590
ss(Vimage
p591
g572
tp592
(dp593
Vinstall-stem
p594
Vvmlinuz
p595
sVbootloaders
p596
(lp597
Velilo
p598
ass(Vdescription
p599
g572
NVmckinley
p600
tp601
(dp602
Vhardware
p603
VItanium 2+
p604
sVhardware-long
p605
Vsystems with Itanium 2 or 9300/9500/9700-series processors
p606
ss(g192
g572
g161
tp607
(dp608
g195
(lp609
Vitanium
p610
aVmckinley
p611
asg199
I01
ss(Vbase
p612
Vm68k
p613
tp614
(dp615
Vcflags
p616
V-ffreestanding
p617
sg159
(lp618
g161
asVkernel-arch
p619
Vm68k
p620
ss(Vbuild
p621
g613
tp622
(dp623
Vimage-file
p624
Vvmlinux
p625
ss(Vdescription
p626
g613
NVm68k
p627
tp628
(dp629
Vhardware
p630
VMotorola MC68020+ family
p631
ss(Vimage
p632
g613
tp633
(dp634
Vsuggests
p635
Vvmelilo, fdutils
p636
sVinstall-stem
p637
Vvmlinux
p638
ss(g192
g613
g161
tp639
(dp640
g195
(lp641
Vm68k
p642
asg199
I01
ss(Vbase
p643
Vmips
p644
tp645
(dp646
g159
(lp647
g161
asVkernel-arch
p648
Vmips
p649
ss(Vbuild
p650
g644
tp651
(dp652
Vimage-file
p653
Vvmlinux
p654
ss(Vimage
p655
g644
NV4kc-malta
p656
tp657
(dp658
Vconfigs
p659
(lp660
Vkernelarch-mips/config.malta
p661
aVkernelarch-mips/config.mips32r2
p662
ass(Vimage
p663
g644
NV5kc-malta
p664
tp665
(dp666
Vconfigs
p667
(lp668
Vkernelarch-mips/config.malta
p669
aVkernelarch-mips/config.mips64r2
p670
ass(Vdescription
p671
g644
NVocteon
p672
tp673
(dp674
Vhardware
p675
VOcteon
p676
sVhardware-long
p677
VCavium Networks Octeon
p678
ss(Vimage
p679
g644
NVocteon
p680
tp681
(dp682
Vconfigs
p683
(lp684
Vkernelarch-mips/config.octeon
p685
ass(Vimage
p686
g644
tp687
(dp688
Vinstall-stem
p689
Vvmlinux
p690
ss(Vdescription
p691
g644
NV5kc-malta
p692
tp693
(dp694
Vhardware
p695
VMIPS Malta (64-bit)
p696
sVhardware-long
p697
VMIPS Malta boards (64-bit)
p698
ss(Vdescription
p699
g644
NV4kc-malta
p700
tp701
(dp702
Vhardware
p703
VMIPS Malta
p704
sVhardware-long
p705
VMIPS Malta boards
p706
ss(g192
g644
g161
tp707
(dp708
g195
(lp709
V4kc-malta
p710
aV5kc-malta
p711
aVocteon
p712
asg199
I01
ss(Vbase
p713
Vmips64
p714
tp715
(dp716
g159
(lp717
g161
asVkernel-arch
p718
Vmips
p719
ss(Vbuild
p720
g714
tp721
(dp722
Vimage-file
p723
Vvmlinux
p724
ss(Vimage
p725
g714
NV5kc-malta
p726
tp727
(dp728
Vconfigs
p729
(lp730
Vkernelarch-mips/config.malta
p731
aVkernelarch-mips/config.mips64r2
p732
ass(Vdescription
p733
g714
NVocteon
p734
tp735
(dp736
Vhardware
p737
VOcteon
p738
sVhardware-long
p739
VCavium Networks Octeon
p740
ss(Vimage
p741
g714
tp742
(dp743
Vinstall-stem
p744
Vvmlinux
p745
ss(Vdescription
p746
g714
NV5kc-malta
p747
tp748
(dp749
Vhardware
p750
VMIPS Malta
p751
sVhardware-long
p752
VMIPS Malta boards
p753
ss(Vimage
p754
g714
NVocteon
p755
tp756
(dp757
Vconfigs
p758
(lp759
Vkernelarch-mips/config.octeon
p760
ass(g192
g714
g161
tp761
(dp762
g195
(lp763
V5kc-malta
p764
aVocteon
p765
asg199
I01
ss(Vbase
p766
Vmips64el
p767
tp768
(dp769
g159
(lp770
g161
asVkernel-arch
p771
Vmips
p772
ss(Vimage
p773
g767
NVloongson-3
p774
tp775
(dp776
Vconfigs
p777
(lp778
Vkernelarch-mips/config.loongson-3
p779
ass(Vbuild
p780
g767
tp781
(dp782
Vimage-file
p783
Vvmlinux
p784
ss(Vimage
p785
g767
NV5kc-malta
p786
tp787
(dp788
Vconfigs
p789
(lp790
Vkernelarch-mips/config.malta
p791
aVkernelarch-mips/config.mips64r2
p792
ass(Vdescription
p793
g767
NVocteon
p794
tp795
(dp796
Vhardware
p797
VOcteon
p798
sVhardware-long
p799
VCavium Networks Octeon
p800
ss(Vdescription
p801
g767
NVloongson-3
p802
tp803
(dp804
Vhardware
p805
VLoongson 3A/3B
p806
sVhardware-long
p807
VLoongson 3A or 3B based systems (e.g. from Loongson or Lemote)
p808
ss(Vimage
p809
g767
tp810
(dp811
Vinstall-stem
p812
Vvmlinux
p813
ss(Vdescription
p814
g767
NV5kc-malta
p815
tp816
(dp817
Vhardware
p818
VMIPS Malta
p819
sVhardware-long
p820
VMIPS Malta boards
p821
ss(Vimage
p822
g767
NVocteon
p823
tp824
(dp825
Vconfigs
p826
(lp827
Vkernelarch-mips/config.octeon
p828
ass(g192
g767
g161
tp829
(dp830
g195
(lp831
V5kc-malta
p832
aVloongson-3
p833
aVocteon
p834
asg199
I01
ss(Vbase
p835
Vmips64r6
p836
tp837
(dp838
g159
(lp839
g161
asVkernel-arch
p840
Vmips
p841
ss(Vbuild
p842
g836
tp843
(dp844
Vimage-file
p845
Vvmlinux
p846
ss(Vimage
p847
g836
tp848
(dp849
Vinstall-stem
p850
Vvmlinux
p851
ss(Vimage
p852
g836
NVmips64r6
p853
tp854
(dp855
Vconfigs
p856
(lp857
Vkernelarch-mips/config.boston
p858
aVkernelarch-mips/config.mips64r6
p859
ass(Vdescription
p860
g836
NVmips64r6
p861
tp862
(dp863
Vhardware
p864
VMIPS R6 (64 bit, big endian)
p865
sVhardware-long
p866
VMIPS R6 (64 bit, big endian)
p867
ss(g192
g836
g161
tp868
(dp869
g195
(lp870
Vmips64r6
p871
asg199
I01
ss(Vbase
p872
Vmips64r6el
p873
tp874
(dp875
g159
(lp876
g161
asVkernel-arch
p877
Vmips
p878
ss(Vimage
p879
g873
NVmips64r6el
p880
tp881
(dp882
Vconfigs
p883
(lp884
Vkernelarch-mips/config.boston
p885
aVkernelarch-mips/config.mips64r6
p886
ass(Vbuild
p887
g873
tp888
(dp889
Vimage-file
p890
Vvmlinux
p891
ss(Vdescription
p892
g873
NVmips64r6el
p893
tp894
(dp895
Vhardware
p896
VMIPS R6 (64 bit, little endian)
p897
sVhardware-long
p898
VMIPS R6 (64 bit, little endian)
p899
ss(Vimage
p900
g873
tp901
(dp902
Vinstall-stem
p903
Vvmlinux
p904
ss(g192
g873
g161
tp905
(dp906
g195
(lp907
Vmips64r6el
p908
asg199
I01
ss(Vbase
p909
Vmipsel
p910
tp911
(dp912
g159
(lp913
g161
asVkernel-arch
p914
Vmips
p915
ss(Vimage
p916
g910
NVloongson-3
p917
tp918
(dp919
Vconfigs
p920
(lp921
Vkernelarch-mips/config.loongson-3
p922
ass(Vbuild
p923
g910
tp924
(dp925
Vimage-file
p926
Vvmlinux
p927
ss(Vimage
p928
g910
NV4kc-malta
p929
tp930
(dp931
Vconfigs
p932
(lp933
Vkernelarch-mips/config.malta
p934
aVkernelarch-mips/config.mips32r2
p935
ass(Vimage
p936
g910
NV5kc-malta
p937
tp938
(dp939
Vconfigs
p940
(lp941
Vkernelarch-mips/config.malta
p942
aVkernelarch-mips/config.mips64r2
p943
ass(Vdescription
p944
g910
NVocteon
p945
tp946
(dp947
Vhardware
p948
VOcteon
p949
sVhardware-long
p950
VCavium Networks Octeon
p951
ss(Vdescription
p952
g910
NVloongson-3
p953
tp954
(dp955
Vhardware
p956
VLoongson 3A/3B
p957
sVhardware-long
p958
VLoongson 3A or 3B based systems (e.g. from Loongson or Lemote)
p959
ss(Vimage
p960
g910
NVocteon
p961
tp962
(dp963
Vconfigs
p964
(lp965
Vkernelarch-mips/config.octeon
p966
ass(Vimage
p967
g910
tp968
(dp969
Vinstall-stem
p970
Vvmlinux
p971
ss(Vdescription
p972
g910
NV5kc-malta
p973
tp974
(dp975
Vhardware
p976
VMIPS Malta (64-bit)
p977
sVhardware-long
p978
VMIPS Malta boards (64-bit)
p979
ss(Vdescription
p980
g910
NV4kc-malta
p981
tp982
(dp983
Vhardware
p984
VMIPS Malta
p985
sVhardware-long
p986
VMIPS Malta boards
p987
ss(g192
g910
g161
tp988
(dp989
g195
(lp990
V4kc-malta
p991
aV5kc-malta
p992
aVloongson-3
p993
aVocteon
p994
asg199
I01
ss(Vbase
p995
Vmipsn32
p996
tp997
(dp998
Vfeaturesets
p999
(lp1000
sVkernel-arch
p1001
Vmips
p1002
ss(Vbase
p1003
Vmipsn32el
p1004
tp1005
(dp1006
Vfeaturesets
p1007
(lp1008
sVkernel-arch
p1009
Vmips
p1010
ss(Vbase
p1011
Vmipsn32r6
p1012
tp1013
(dp1014
Vfeaturesets
p1015
(lp1016
sVkernel-arch
p1017
Vmips
p1018
ss(Vbase
p1019
Vmipsn32r6el
p1020
tp1021
(dp1022
Vfeaturesets
p1023
(lp1024
sVkernel-arch
p1025
Vmips
p1026
ss(Vbase
p1027
Vmipsr6
p1028
tp1029
(dp1030
g159
(lp1031
g161
asVkernel-arch
p1032
Vmips
p1033
ss(Vbuild
p1034
g1028
tp1035
(dp1036
Vimage-file
p1037
Vvmlinux
p1038
ss(Vdescription
p1039
g1028
NVmips32r6
p1040
tp1041
(dp1042
Vhardware
p1043
VMIPS R6 (32 bit, big endian)
p1044
sVhardware-long
p1045
VMIPS R6 (32 bit, big endian)
p1046
ss(Vdescription
p1047
g1028
NVmips64r6
p1048
tp1049
(dp1050
Vhardware
p1051
VMIPS R6 (64 bit, big endian)
p1052
sVhardware-long
p1053
VMIPS R6 (64 bit, big endian)
p1054
ss(Vimage
p1055
g1028
NVmips64r6
p1056
tp1057
(dp1058
Vconfigs
p1059
(lp1060
Vkernelarch-mips/config.boston
p1061
aVkernelarch-mips/config.mips64r6
p1062
ass(Vimage
p1063
g1028
tp1064
(dp1065
Vinstall-stem
p1066
Vvmlinux
p1067
ss(Vimage
p1068
g1028
NVmips32r6
p1069
tp1070
(dp1071
Vconfigs
p1072
(lp1073
Vkernelarch-mips/config.boston
p1074
aVkernelarch-mips/config.mips32r6
p1075
ass(g192
g1028
g161
tp1076
(dp1077
g195
(lp1078
Vmips32r6
p1079
aVmips64r6
p1080
asg199
I01
ss(Vbase
p1081
Vmipsr6el
p1082
tp1083
(dp1084
g159
(lp1085
g161
asVkernel-arch
p1086
Vmips
p1087
ss(Vimage
p1088
g1082
NVmips32r6el
p1089
tp1090
(dp1091
Vconfigs
p1092
(lp1093
Vkernelarch-mips/config.boston
p1094
aVkernelarch-mips/config.mips32r6
p1095
ass(Vdescription
p1096
g1082
NVmips64r6el
p1097
tp1098
(dp1099
Vhardware
p1100
VMIPS R6 (64 bit, little endian)
p1101
sVhardware-long
p1102
VMIPS R6 (64 bit, little endian)
p1103
ss(Vdescription
p1104
g1082
NVmips32r6el
p1105
tp1106
(dp1107
Vhardware
p1108
VMIPS R6 (32 bit, little endian)
p1109
sVhardware-long
p1110
VMIPS R6 (32 bit, little endian)
p1111
ss(Vimage
p1112
g1082
NVmips64r6el
p1113
tp1114
(dp1115
Vconfigs
p1116
(lp1117
Vkernelarch-mips/config.boston
p1118
aVkernelarch-mips/config.mips64r6
p1119
ass(Vbuild
p1120
g1082
tp1121
(dp1122
Vimage-file
p1123
Vvmlinux
p1124
ss(Vimage
p1125
g1082
tp1126
(dp1127
Vinstall-stem
p1128
Vvmlinux
p1129
ss(g192
g1082
g161
tp1130
(dp1131
g195
(lp1132
Vmips32r6el
p1133
aVmips64r6el
p1134
asg199
I01
ss(Vbase
p1135
Vpowerpc
p1136
tp1137
(dp1138
g159
(lp1139
g161
asVkernel-arch
p1140
Vpowerpc
p1141
ss(Vdescription
p1142
g1136
NVpowerpc64
p1143
tp1144
(dp1145
Vhardware
p1146
V64-bit PowerPC
p1147
ss(Vbuild
p1148
g1136
tp1149
(dp1150
Vvdso
p1151
I01
sVimage-file
p1152
Vvmlinux
p1153
ss(Vimage
p1154
g1136
NVpowerpc-smp
p1155
tp1156
(dp1157
Vconfigs
p1158
(lp1159
Vpowerpc/config.powerpc
p1160
aVpowerpc/config.powerpc-smp
p1161
ass(Vdescription
p1162
g1136
NVpowerpc
p1163
tp1164
(dp1165
Vhardware
p1166
Vuniprocessor 32-bit PowerPC
p1167
ss(Vimage
p1168
g1136
NVpowerpc64
p1169
tp1170
(dp1171
Vconfigs
p1172
(lp1173
Vkernelarch-powerpc/config-arch-64
p1174
aVkernelarch-powerpc/config-arch-64-be
p1175
ass(Vdescription
p1176
g1136
NVpowerpc-smp
p1177
tp1178
(dp1179
Vhardware
p1180
Vmultiprocessor 32-bit PowerPC
p1181
ss(Vimage
p1182
g1136
tp1183
(dp1184
Vsuggests
p1185
Vmkvmlinuz
p1186
sVinstall-stem
p1187
Vvmlinux
p1188
sVconfigs
p1189
(lp1190
ss(g192
g1136
g161
tp1191
(dp1192
g195
(lp1193
Vpowerpc
p1194
aVpowerpc-smp
p1195
aVpowerpc64
p1196
asg199
I01
ss(Vbase
p1197
Vpowerpcspe
p1198
tp1199
(dp1200
g159
(lp1201
g161
asVkernel-arch
p1202
Vpowerpc
p1203
ss(Vbuild
p1204
g1198
tp1205
(dp1206
Vvdso
p1207
I01
sVimage-file
p1208
Vvmlinux
p1209
ss(Vimage
p1210
g1198
tp1211
(dp1212
Vsuggests
p1213
Vmkvmlinuz
p1214
sVinstall-stem
p1215
Vvmlinux
p1216
ss(Vdescription
p1217
g1198
tp1218
(dp1219
Vhardware
p1220
V32-bit PowerPC with SPE (instead of AltiVec) with SMP support
p1221
ss(g192
g1198
g161
tp1222
(dp1223
g195
(lp1224
Vpowerpcspe
p1225
asg199
I01
ss(Vbase
p1226
Vppc64
p1227
tp1228
(dp1229
g159
(lp1230
g161
asVkernel-arch
p1231
Vpowerpc
p1232
ss(Vdescription
p1233
g1227
NVpowerpc64
p1234
tp1235
(dp1236
Vhardware
p1237
V64-bit PowerPC
p1238
ss(Vbuild
p1239
g1227
tp1240
(dp1241
Vvdso
p1242
I01
sVimage-file
p1243
Vvmlinux
p1244
ss(Vimage
p1245
g1227
NVpowerpc64
p1246
tp1247
(dp1248
Vconfigs
p1249
(lp1250
Vkernelarch-powerpc/config-arch-64
p1251
aVkernelarch-powerpc/config-arch-64-be
p1252
ass(Vimage
p1253
g1227
tp1254
(dp1255
Vsuggests
p1256
Vmkvmlinuz
p1257
sVinstall-stem
p1258
Vvmlinux
p1259
sVconfigs
p1260
(lp1261
ss(g192
g1227
g161
tp1262
(dp1263
g195
(lp1264
Vpowerpc64
p1265
asg199
I01
ss(Vbase
p1266
Vppc64el
p1267
tp1268
(dp1269
g159
(lp1270
g161
asVkernel-arch
p1271
Vpowerpc
p1272
ss(Vdescription
p1273
g1267
NVpowerpc64le
p1274
tp1275
(dp1276
Vhardware
p1277
VLittle-endian 64-bit PowerPC
p1278
ss(Vbuild
p1279
g1267
tp1280
(dp1281
Vvdso
p1282
I01
sVimage-file
p1283
Vvmlinux
p1284
ss(Vimage
p1285
g1267
tp1286
(dp1287
Vsuggests
p1288
Vmkvmlinuz
p1289
sVinstall-stem
p1290
Vvmlinux
p1291
sVconfigs
p1292
(lp1293
ss(Vimage
p1294
g1267
NVpowerpc64le
p1295
tp1296
(dp1297
Vconfigs
p1298
(lp1299
Vkernelarch-powerpc/config-arch-64
p1300
aVkernelarch-powerpc/config-arch-64-le
p1301
ass(g192
g1267
g161
tp1302
(dp1303
g195
(lp1304
Vpowerpc64le
p1305
asg199
I01
ss(Vbase
p1306
Vriscv64
p1307
tp1308
(dp1309
Vfeaturesets
p1310
(lp1311
Vnone
p1312
asVkernel-arch
p1313
Vriscv
p1314
ss(Vbuild
p1315
g1307
tp1316
(dp1317
Vimage-file
p1318
Vvmlinux
p1319
ss(Vdescription
p1320
g1307
NVriscv64
p1321
tp1322
(dp1323
Vhardware
p1324
V64-bit RISC-V platforms
p1325
sVhardware-long
p1326
V64-bit RISC-V platforms
p1327
ss(Vimage
p1328
g1307
tp1329
(dp1330
Vinstall-stem
p1331
Vvmlinux
p1332
ss(Vbase
p1333
g1307
Vnone
p1334
tp1335
(dp1336
Vflavours
p1337
(lp1338
Vriscv64
p1339
ass(Vbase
p1340
Vs390
p1341
tp1342
(dp1343
Vfeaturesets
p1344
(lp1345
sVkernel-arch
p1346
Vs390
p1347
ss(Vbase
p1348
Vs390x
p1349
tp1350
(dp1351
g159
(lp1352
g161
asVkernel-arch
p1353
Vs390
p1354
ss(Vdescription
p1355
g1349
NVs390x
p1356
tp1357
(dp1358
Vhardware
p1359
VIBM zSeries
p1360
ss(Vbuild
p1361
g1349
tp1362
(dp1363
Vvdso
p1364
I01
sVimage-file
p1365
Varch/s390/boot/bzImage
p1366
ss(Vbuild
p1367
g1349
NVs390x
p1368
tp1369
(dp1370
Vdebug-info
p1371
I01
ss(Vrelations
p1372
g1349
tp1373
(dp1374
Vheaders%gcc-8
p1375
Vlinux-compiler-gcc-8-s390
p1376
ss(Vimage
p1377
g1349
tp1378
(dp1379
Vinstall-stem
p1380
Vvmlinuz
p1381
sVbootloaders
p1382
(lp1383
Vs390-tools
p1384
ass(g192
g1349
g161
tp1385
(dp1386
g195
(lp1387
Vs390x
p1388
asg199
I01
ss(Vbase
p1389
Vsh3
p1390
tp1391
(dp1392
Vfeaturesets
p1393
(lp1394
sVkernel-arch
p1395
Vsh
p1396
ss(Vbase
p1397
Vsh4
p1398
tp1399
(dp1400
g159
(lp1401
g161
asVkernel-arch
p1402
Vsh
p1403
ss(Vbuild
p1404
g1398
tp1405
(dp1406
Vimage-file
p1407
Varch/sh/boot/zImage
p1408
ss(Vdescription
p1409
g1398
NVsh7751r
p1410
tp1411
(dp1412
Vhardware
p1413
Vsh7751r
p1414
sVhardware-long
p1415
VRenesas SH7751R R2D plus board
p1416
ss(Vdescription
p1417
g1398
NVsh7785lcr
p1418
tp1419
(dp1420
Vhardware
p1421
Vsh7785lcr
p1422
sVhardware-long
p1423
VRenesas SH7785 reference board
p1424
ss(Vimage
p1425
g1398
tp1426
(dp1427
Vinstall-stem
p1428
Vvmlinuz
p1429
ss(Vimage
p1430
g1398
NVsh7785lcr
p1431
tp1432
(dp1433
Vrecommends
p1434
Vu-boot-tools
p1435
sVcheck-size
p1436
L4194304L
ss(g192
g1398
g161
tp1437
(dp1438
g195
(lp1439
Vsh7751r
p1440
aVsh7785lcr
p1441
asg199
I01
ss(Vbase
p1442
Vsparc
p1443
tp1444
(dp1445
Vfeaturesets
p1446
(lp1447
sVkernel-arch
p1448
Vsparc
p1449
ss(Vbase
p1450
Vsparc64
p1451
tp1452
(dp1453
g159
(lp1454
g161
asVkernel-arch
p1455
Vsparc
p1456
ss(Vbuild
p1457
g1451
tp1458
(dp1459
Vimage-file
p1460
Varch/sparc/boot/zImage
p1461
ss(Vimage
p1462
g1451
NVsparc64
p1463
tp1464
(dp1465
Vconfigs
p1466
(lp1467
Vkernelarch-sparc/config-up
p1468
ass(Vimage
p1469
g1451
NVsparc64-smp
p1470
tp1471
(dp1472
Vconfigs
p1473
(lp1474
Vkernelarch-sparc/config-smp
p1475
ass(Vimage
p1476
g1451
tp1477
(dp1478
Vsuggests
p1479
Vsilo, fdutils
p1480
sVinstall-stem
p1481
Vvmlinuz
p1482
sVconfigs
p1483
(lp1484
ss(Vdescription
p1485
g1451
NVsparc64-smp
p1486
tp1487
(dp1488
Vhardware
p1489
Vmultiprocessor 64-bit UltraSPARC
p1490
ss(Vdescription
p1491
g1451
NVsparc64
p1492
tp1493
(dp1494
Vhardware
p1495
Vuniprocessor 64-bit UltraSPARC
p1496
ss(g192
g1451
g161
tp1497
(dp1498
g195
(lp1499
Vsparc64
p1500
aVsparc64-smp
p1501
asg199
I01
ss(Vbase
p1502
Vx32
p1503
tp1504
(dp1505
Vfeaturesets
p1506
(lp1507
sVkernel-arch
p1508
Vx86
p1509
ss(Vdescription
p1510
NVrt
p1511
tp1512
(dp1513
Vparts
p1514
(lp1515
Vrt
p1516
asVpart-long-rt
p1517
VThis kernel includes the PREEMPT_RT realtime patch set.
p1518
sVpart-short-rt
p1519
VPREEMPT_RT
p1520
ss(Vabi
p1521
Ng1511
tp1522
(dp1523
Vignore-changes
p1524
(lp1525
V*
p1526
ass(Vversion
p1527
tp1528
(dp1529
Vupstream
p1530
V4.19
p1531
sVsource
p1532
V4.19.95-0pexip2
p1533
sVabiname
p1534
V4.19.0-1pexip1
p1535
sVabiname_base
p1536
V4.19.0
p1537
ss.