ccopy_reg
_reconstructor
p0
(cdebian_linux.config
ConfigCore
p1
c__builtin__
dict
p2
(dp3
(S'image'
p4
S'amd64'
p5
tp6
(dp7
S'install-stem'
p8
S'vmlinuz'
p9
sS'configs'
p10
(lp11
sS'bootloaders'
p12
(lp13
S'grub-pc'
p14
aS'extlinux'
p15
aS'lilo'
p16
ass(S'base'
p17
S'hppa'
p18
NS'parisc64-smp'
p19
tp20
(dp21
S'override-host-type'
p22
S'hppa64-linux-gnu'
p23
sS'cflags'
p24
S'-fno-cse-follow-jumps'
p25
ss(S'image'
p26
S's390x'
p27
NS's390x'
p28
tp29
(dp30
S'configs'
p31
(lp32
S'kernelarch-s390/config-arch-64'
p33
ass(S'image'
p34
S'ppc64el'
p35
NS'powerpc64le'
p36
tp37
(dp38
S'configs'
p39
(lp40
S'kernelarch-powerpc/config-arch-64'
p41
aS'kernelarch-powerpc/config-arch-64-le'
p42
ass(S'build'
p43
S'i386'
p44
NS'686-pae'
p45
tp46
(dp47
S'debug-info'
p48
I01
ss(S'image'
p49
g44
NS'486'
p50
tp51
(dp52
S'configs'
p53
(lp54
S'kernelarch-x86/config-arch-32'
p55
aS'i386/config.486'
p56
ass(S'base'
p57
g5
S'none'
p58
tp59
(dp60
S'flavours'
p61
(lp62
S'amd64'
p63
ass(S'image'
p64
S'powerpcspe'
p65
tp66
(dp67
S'suggests'
p68
S'mkvmlinuz'
p69
sS'install-stem'
p70
S'vmlinux'
p71
ss(S'image'
p72
S'mips'
p73
NS'sb1-bcm91250a'
p74
tp75
(dp76
S'configs'
p77
(lp78
S'kernelarch-mips/config.sb1-bcm91250a'
p79
ass(S'image'
p80
S'ia64'
p81
tp82
(dp83
S'suggests'
p84
S'fdutils'
p85
sS'bootloaders'
p86
(lp87
S'elilo'
p88
asS'install-stem'
p89
S'vmlinuz'
p90
ss(S'image'
p91
S'sparc64'
p92
NS'sparc64-smp'
p93
tp94
(dp95
S'configs'
p96
(lp97
S'kernelarch-sparc/config-smp'
p98
ass(S'image'
p99
S'mips64el'
p100
NS'sb1-bcm91250a'
p101
tp102
(dp103
S'configs'
p104
(lp105
S'kernelarch-mips/config.sb1-bcm91250a'
p106
ass(S'description'
p107
g5
g58
S'amd64'
p108
tp109
(dp110
S'parts'
p111
(lp112
S'xen'
p113
ass(S'image'
p114
S'mipsel'
p115
NS'5kc-malta'
p116
tp117
(dp118
S'configs'
p119
(lp120
S'kernelarch-mips/config.5kc-malta'
p121
ass(S'description'
p122
S'armel'
p123
NS'versatile'
p124
tp125
(dp126
S'hardware'
p127
S'Versatile'
p128
sS'hardware-long'
p129
S'Versatile systems (PB, AB, Qemu)'
p130
ss(S'base'
p131
S'ppc64'
p132
S'none'
p133
tp134
(dp135
S'implicit-flavour'
p136
I01
sS'flavours'
p137
(lp138
S'powerpc64'
p139
ass(S'description'
p140
g115
NS'5kc-malta'
p141
tp142
(dp143
S'hardware'
p144
S'MIPS Malta (64-bit)'
p145
sS'hardware-long'
p146
S'MIPS Malta boards (64-bit)'
p147
ss(S'description'
p148
g100
NS'sb1-bcm91250a'
p149
tp150
(dp151
S'hardware'
p152
S'BCM91250A'
p153
sS'hardware-long'
p154
S'Broadcom BCM91250A systems (aka SWARM)'
p155
ss(S'base'
p156
S'alpha'
p157
tp158
(dp159
S'kernel-arch'
p160
S'alpha'
p161
sS'featuresets'
p162
(lp163
g133
ass(S'build'
p164
g81
tp165
(dp166
S'image-file'
p167
S'vmlinux.gz'
p168
ss(S'description'
p169
g73
NS'5kc-malta'
p170
tp171
(dp172
S'hardware'
p173
S'MIPS Malta (64-bit)'
p174
sS'hardware-long'
p175
S'MIPS Malta boards (64-bit)'
p176
ss(g131
S'armhf'
p177
g133
tp178
(dp179
g136
I01
sg137
(lp180
S'armmp'
p181
aS'armmp-lpae'
p182
ass(S'description'
p183
S'mips64'
p184
NS'octeon'
p185
tp186
(dp187
S'hardware'
p188
S'Octeon'
p189
sS'hardware-long'
p190
S'Cavium Networks Octeon'
p191
ss(S'description'
p192
S'arm64'
p193
NS'arm64'
p194
tp195
(dp196
S'hardware'
p197
S'64-bit ARMv8 machines'
p198
ss(S'base'
p199
g44
S'rt'
p200
tp201
(dp202
S'flavours'
p203
(lp204
S'686-pae'
p205
ass(S'description'
p206
g115
NS'sb1-bcm91250a'
p207
tp208
(dp209
S'hardware'
p210
S'BCM91250A'
p211
sS'hardware-long'
p212
S'Broadcom BCM91250A systems (aka SWARM)'
p213
ss(S'image'
p214
g35
tp215
(dp216
S'suggests'
p217
S'mkvmlinuz'
p218
sS'configs'
p219
(lp220
sS'install-stem'
p221
S'vmlinux'
p222
ss(S'image'
p223
g44
NS'686-pae'
p224
tp225
(dp226
S'configs'
p227
(lp228
S'kernelarch-x86/config-arch-32'
p229
aS'i386/config.686-pae'
p230
asS'recommends'
p231
S'libc6-i686'
p232
ss(S'relations'
p233
g44
tp234
(dp235
S'headers%gcc-4.8'
p236
S'linux-compiler-gcc-4.8-x86'
p237
ss(S'base'
p238
g44
tp239
(dp240
S'kernel-arch'
p241
S'x86'
p242
sS'featuresets'
p243
(lp244
S'none'
p245
aS'rt'
p246
ass(S'image'
p247
S'powerpc'
p248
tp249
(dp250
S'suggests'
p251
S'mkvmlinuz'
p252
sS'configs'
p253
(lp254
sS'install-stem'
p255
S'vmlinux'
p256
ss(S'description'
p257
g184
NS'sb1-bcm91250a'
p258
tp259
(dp260
S'hardware'
p261
S'BCM91250A'
p262
sS'hardware-long'
p263
S'Broadcom BCM91250A systems (aka SWARM)'
p264
ss(S'description'
p265
g81
NS'itanium'
p266
tp267
(dp268
S'hardware'
p269
S'Itanium'
p270
ss(S'base'
p271
g5
S'rt'
p272
tp273
(dp274
S'flavours'
p275
(lp276
S'amd64'
p277
ass(S'build'
p278
g35
tp279
(dp280
S'image-file'
p281
S'vmlinux'
p282
ss(S'build'
p283
g132
tp284
(dp285
S'image-file'
p286
S'vmlinux'
p287
ss(S'image'
p288
g73
NS'5kc-malta'
p289
tp290
(dp291
S'configs'
p292
(lp293
S'kernelarch-mips/config.5kc-malta'
p294
ass(S'description'
p295
g44
S'none'
p296
S'amd64'
p297
tp298
(dp299
S'parts'
p300
(lp301
S'xen'
p302
ass(S'base'
p303
g193
tp304
(dp305
S'kernel-arch'
p306
S'arm64'
p307
sS'featuresets'
p308
(lp309
S'none'
p310
ass(S'description'
p311
g81
NS'mckinley'
p312
tp313
(dp314
S'hardware'
p315
S'Itanium II'
p316
ss(S'description'
p317
g73
NS'octeon'
p318
tp319
(dp320
S'hardware'
p321
S'Octeon'
p322
sS'hardware-long'
p323
S'Cavium Networks Octeon'
p324
ss(S'base'
p325
g115
tp326
(dp327
S'kernel-arch'
p328
S'mips'
p329
sg162
(lp330
g133
ass(S'description'
p331
g44
NS'686-pae'
p332
tp333
(dp334
S'hardware'
p335
S'modern PCs'
p336
sS'parts'
p337
(lp338
S'pae'
p339
asS'hardware-long'
p340
S'PCs with one or more processors supporting PAE'
p341
ss(S'relations'
p342
g5
tp343
(dp344
S'headers%gcc-4.8'
p345
S'linux-compiler-gcc-4.8-x86'
p346
ss(g131
g18
g133
tp347
(dp348
g136
I01
sg137
(lp349
S'parisc'
p350
aS'parisc64-smp'
p351
ass(S'description'
p352
g27
NS's390x'
p353
tp354
(dp355
S'hardware'
p356
S'IBM zSeries'
p357
ss(S'base'
p358
g18
tp359
(dp360
S'kernel-arch'
p361
S'parisc'
p362
sg162
(lp363
g133
ass(S'relations'
p364
S's390'
p365
tp366
(dp367
S'headers%gcc-4.8'
p368
S'linux-compiler-gcc-4.8-s390'
p369
ss(g131
g115
g133
tp370
(dp371
g136
I01
sg137
(lp372
S'sb1-bcm91250a'
p373
aS'4kc-malta'
p374
aS'5kc-malta'
p375
aS'loongson-2e'
p376
aS'loongson-2f'
p377
aS'loongson-3'
p378
ass(S'image'
p379
g193
NS'arm64'
p380
tp381
(dp382
s(S'image'
p383
g115
NS'loongson-2f'
p384
tp385
(dp386
S'configs'
p387
(lp388
S'kernelarch-mips/config.loongson-2f'
p389
asS'recommends'
p390
S'libc6-loongson2f'
p391
ss(S'description'
p392
g65
tp393
(dp394
S'hardware'
p395
S'32-bit PowerPC with SPE (instead of AltiVec) with SMP support'
p396
ss(S'relations'
p397
tp398
(dp399
S'gcc-4.8'
p400
S'gcc-4.8'
p401
sS'initramfs-fallback'
p402
S'linux-initramfs-tool'
p403
sS'gcc-4.7'
p404
S'gcc-4.7'
p405
sS'gcc-4.6'
p406
S'gcc-4.6'
p407
sS'gcc-4.4'
p408
S'gcc-4.4'
p409
sS'initramfs-tools'
p410
S'initramfs-tools (>= 0.110~)'
p411
ss(S'description'
p412
g100
NS'5kc-malta'
p413
tp414
(dp415
S'hardware'
p416
S'MIPS Malta'
p417
sS'hardware-long'
p418
S'MIPS Malta boards'
p419
ss(S'description'
p420
g100
NS'loongson-3'
p421
tp422
(dp423
S'hardware'
p424
S'Loongson 3A/3B'
p425
sS'hardware-long'
p426
S'Loongson 3A or 3B based systems (e.g. from Loongson or Lemote)'
p427
ss(S'description'
p428
g92
NS'sparc64-smp'
p429
tp430
(dp431
S'hardware'
p432
S'multiprocessor 64-bit UltraSPARC'
p433
ss(S'image'
p434
g184
NS'octeon'
p435
tp436
(dp437
S'configs'
p438
(lp439
S'kernelarch-mips/config.octeon'
p440
ass(g131
g100
g133
tp441
(dp442
g136
I01
sg137
(lp443
S'sb1-bcm91250a'
p444
aS'loongson-2e'
p445
aS'loongson-2f'
p446
aS'loongson-3'
p447
aS'octeon'
p448
ass(S'build'
p449
g65
tp450
(dp451
S'image-file'
p452
S'vmlinux'
p453
ss(g131
S'sh4'
p454
g133
tp455
(dp456
g136
I01
sg137
(lp457
S'sh7751r'
p458
aS'sh7785lcr'
p459
ass(S'build'
p460
g18
tp461
(dp462
S'image-file'
p463
S'vmlinux'
p464
ss(S'build'
p465
g100
tp466
(dp467
S'image-file'
p468
S'vmlinux'
p469
ss(S'image'
p470
g44
NS'amd64'
p471
tp472
(dp473
S'configs'
p474
(lp475
S'kernelarch-x86/config-arch-64'
p476
asS'recommends'
p477
S'libc6-i686'
p478
ss(S'description'
p479
S'm68k'
p480
NS'm68k'
p481
tp482
(dp483
S'hardware'
p484
S'Motorola MC68020+ family'
p485
ss(S'base'
p486
g123
tp487
(dp488
S'kernel-arch'
p489
S'arm'
p490
sg162
(lp491
g133
ass(S'description'
p492
g123
NS'mv78xx0'
p493
tp494
(dp495
S'hardware'
p496
S'Marvell 78xx0'
p497
sS'hardware-long'
p498
S'Marvell DB-78xx0-BP Development Board'
p499
ss(S'build'
p500
g177
tp501
(dp502
S'image-file'
p503
S'arch/arm/boot/zImage'
p504
ss(S'base'
p505
S'sparc'
p506
tp507
(dp508
S'kernel-arch'
p509
S'sparc'
p510
sg162
(lp511
g133
ass(S'base'
p512
g65
tp513
(dp514
S'kernel-arch'
p515
S'powerpc'
p516
sg162
(lp517
g133
ass(S'description'
p518
g454
NS'sh7785lcr'
p519
tp520
(dp521
S'hardware'
p522
S'sh7785lcr'
p523
sS'hardware-long'
p524
S'Renesas SH7785 reference board'
p525
ss(S'base'
p526
NS'rt'
p527
tp528
(dp529
S'enabled'
p530
I01
ss(S'version'
p531
tp532
(dp533
S'abiname'
p534
S'3.14-2'
p535
sS'source'
p536
V3.14.15-2
p537
sS'upstream'
p538
S'3.14'
p539
ss(S'image'
p540
g123
NS'kirkwood'
p541
tp542
(dp543
S'check-size'
p544
S'2097080'
p545
sS'recommends'
p546
S'uboot-mkimage'
p547
ss(S'description'
p548
g157
NS'alpha-legacy'
p549
tp550
(dp551
S'hardware'
p552
S'Alpha Legacy'
p553
sS'hardware-long'
p554
S'DEC Alpha systems with legacy kernel start address'
p555
ss(g131
g365
g133
tp556
(dp557
g136
I01
sg137
(lp558
S's390x'
p559
ass(S'build'
p560
g73
tp561
(dp562
S'image-file'
p563
S'vmlinux'
p564
ss(S'image'
p565
g73
NS'octeon'
p566
tp567
(dp568
S'configs'
p569
(lp570
S'kernelarch-mips/config.octeon'
p571
ass(g131
g27
g133
tp572
(dp573
g136
I01
sg137
(lp574
S's390x'
p575
ass(S'base'
p576
g73
tp577
(dp578
S'kernel-arch'
p579
S'mips'
p580
sg162
(lp581
g133
ass(S'build'
p582
g5
tp583
(dp584
S'debug-info'
p585
I01
sS'image-file'
p586
S'arch/x86/boot/bzImage'
p587
ss(S'image'
p588
g248
NS'powerpc64'
p589
tp590
(dp591
S'configs'
p592
(lp593
S'kernelarch-powerpc/config-arch-64'
p594
aS'kernelarch-powerpc/config-arch-64-be'
p595
ass(S'image'
p596
g100
NS'5kc-malta'
p597
tp598
(dp599
S'configs'
p600
(lp601
S'kernelarch-mips/config.5kc-malta'
p602
ass(S'build'
p603
g506
tp604
(dp605
S'image-file'
p606
S'arch/sparc/boot/zImage'
p607
ss(S'image'
p608
g115
tp609
(dp610
S'install-stem'
p611
S'vmlinux'
p612
ss(S'build'
p613
g248
tp614
(dp615
S'image-file'
p616
S'vmlinux'
p617
ss(S'build'
p618
g193
tp619
(dp620
S'debug-info'
p621
I01
sS'image-file'
p622
S'arch/arm64/boot/Image'
p623
ss(S'description'
p624
g92
NS'sparc64'
p625
tp626
(dp627
S'hardware'
p628
S'uniprocessor 64-bit UltraSPARC'
p629
ss(S'build'
p630
g115
tp631
(dp632
S'image-file'
p633
S'vmlinux'
p634
ss(S'base'
p635
g184
tp636
(dp637
S'kernel-arch'
p638
S'mips'
p639
sg162
(lp640
g133
ass(S'image'
p641
g115
NS'loongson-2e'
p642
tp643
(dp644
S'configs'
p645
(lp646
S'kernelarch-mips/config.loongson-2e'
p647
ass(S'base'
p648
g5
tp649
(dp650
S'kernel-arch'
p651
S'x86'
p652
sS'featuresets'
p653
(lp654
S'none'
p655
aS'rt'
p656
ass(S'base'
p657
g81
tp658
(dp659
S'kernel-arch'
p660
S'ia64'
p661
sg162
(lp662
g133
asS'compiler'
p663
S'gcc-4.6'
p664
ss(S'image'
p665
g365
NS's390x'
p666
tp667
(dp668
S'configs'
p669
(lp670
S'kernelarch-s390/config-arch-64'
p671
ass(S'description'
p672
g73
NS'r4k-ip22'
p673
tp674
(dp675
S'hardware'
p676
S'SGI IP22'
p677
sS'hardware-long'
p678
S'SGI IP22 systems (Indy, Indigo2)'
p679
ss(S'base'
p680
g365
tp681
(dp682
S'kernel-arch'
p683
S's390'
p684
sg162
(lp685
g133
ass(g131
g123
g133
tp686
(dp687
g136
I01
sg137
(lp688
S'kirkwood'
p689
aS'mv78xx0'
p690
aS'orion5x'
p691
aS'versatile'
p692
ass(S'image'
p693
g248
NS'powerpc-smp'
p694
tp695
(dp696
S'configs'
p697
(lp698
S'powerpc/config.powerpc'
p699
aS'powerpc/config.powerpc-smp'
p700
ass(S'description'
p701
g73
NS'sb1-bcm91250a'
p702
tp703
(dp704
S'hardware'
p705
S'BCM91250A'
p706
sS'hardware-long'
p707
S'Broadcom BCM91250A systems (aka SWARM)'
p708
ss(S'image'
p709
g115
NS'4kc-malta'
p710
tp711
(dp712
S'configs'
p713
(lp714
S'kernelarch-mips/config.4kc-malta'
p715
ass(S'description'
p716
g44
tp717
(dp718
S'part-long-pae'
p719
S'This kernel requires PAE (Physical Address Extension).\nThis feature is supported by the Intel Pentium Pro/II/III/4/4M/D, Xeon,\nCore and Atom; AMD Geode NX, Athlon (K7), Duron, Opteron, Sempron,\nTurion or Phenom; Transmeta Efficeon; VIA C7; and some other processors.'
p720
ss(S'description'
p721
g177
NS'armmp-lpae'
p722
tp723
(dp724
S'hardware'
p725
S'ARMv7 multiplatform compatible SoCs supporting LPAE'
p726
sS'hardware-long'
p727
S'ARMv7 multiplatform kernel supporting LPAE'
p728
ss(S'description'
p729
g123
NS'kirkwood'
p730
tp731
(dp732
S'hardware'
p733
S'Marvell Kirkwood'
p734
sS'hardware-long'
p735
S'Marvell Kirkwood based systems (SheevaPlug, QNAP TS-119/TS-219, etc)'
p736
ss(S'description'
p737
g248
NS'powerpc-smp'
p738
tp739
(dp740
S'hardware'
p741
S'multiprocessor 32-bit PowerPC'
p742
ss(S'description'
p743
g132
NS'powerpc64'
p744
tp745
(dp746
S'hardware'
p747
S'64-bit PowerPC'
p748
ss(S'xen'
p749
g5
g58
S'amd64'
p750
tp751
(dp752
S'flavours'
p753
(lp754
S'amd64'
p755
ass(S'image'
p756
g115
NS'sb1-bcm91250a'
p757
tp758
(dp759
S'configs'
p760
(lp761
S'kernelarch-mips/config.sb1-bcm91250a'
p762
ass(S'image'
p763
g123
tp764
(dp765
S'suggests'
p766
S'fdutils'
p767
sS'configs'
p768
(lp769
S'kernelarch-arm/config'
p770
aS'armel/config'
p771
asS'install-stem'
p772
S'vmlinuz'
p773
ss(S'image'
p774
g365
tp775
(dp776
S'install-stem'
p777
S'vmlinuz'
p778
sS'configs'
p779
(lp780
sS'bootloaders'
p781
(lp782
S's390-tools'
p783
ass(S'abi'
p784
g5
tp785
(dp786
S'ignore-changes'
p787
(lp788
S'module:arch/x86/kvm/*'
p789
ass(S'image'
p790
g100
NS'octeon'
p791
tp792
(dp793
S'configs'
p794
(lp795
S'kernelarch-mips/config.octeon'
p796
ass(S'image'
p797
g177
NS'armmp-lpae'
p798
tp799
(dp800
S'configs'
p801
(lp802
S'armhf/config.armmp'
p803
aS'armhf/config.lpae'
p804
ass(S'image'
p805
g506
NS'sparc64'
p806
tp807
(dp808
S'configs'
p809
(lp810
S'kernelarch-sparc/config-up'
p811
ass(g131
g184
g133
tp812
(dp813
g136
I01
sg137
(lp814
S'sb1-bcm91250a'
p815
aS'octeon'
p816
ass(S'relations'
p817
g18
tp818
(dp819
S'gcc-4.8'
p820
S'gcc-4.8, binutils-hppa64, gcc-4.8-hppa64'
p821
ss(S'description'
p822
g73
NS'4kc-malta'
p823
tp824
(dp825
S'hardware'
p826
S'MIPS Malta'
p827
sS'hardware-long'
p828
S'MIPS Malta boards'
p829
ss(S'image'
p830
g123
NS'ixp4xx'
p831
tp832
(dp833
S'check-size'
p834
S'1441760'
p835
sS'configs'
p836
(lp837
S'armel/config-reduced'
p838
aS'armel/config.ixp4xx'
p839
ass(S'image'
p840
g184
NS'sb1-bcm91250a'
p841
tp842
(dp843
S'configs'
p844
(lp845
S'kernelarch-mips/config.sb1-bcm91250a'
p846
ass(S'image'
p847
g123
NS'orion5x'
p848
tp849
(dp850
S'check-size'
p851
S'1572792'
p852
sS'configs'
p853
(lp854
S'armel/config-reduced'
p855
aS'armel/config.orion5x'
p856
asS'recommends'
p857
S'uboot-mkimage'
p858
ss(S'description'
p859
g157
NS'alpha-generic'
p860
tp861
(dp862
S'hardware'
p863
S'Alpha'
p864
sS'hardware-long'
p865
S'DEC Alpha systems with extended kernel start address (Wildfire, Titan, Marvel)'
p866
ss(S'image'
p867
g100
NS'loongson-2f'
p868
tp869
(dp870
S'configs'
p871
(lp872
S'kernelarch-mips/config.loongson-2f'
p873
asS'recommends'
p874
S'libc6-loongson2f'
p875
ss(S'image'
p876
g157
tp877
(dp878
S'suggests'
p879
S'aboot, fdutils'
p880
sS'install-stem'
p881
S'vmlinuz'
p882
ss(S'base'
p883
g92
tp884
(dp885
S'kernel-arch'
p886
S'sparc'
p887
sg162
(lp888
g133
ass(S'image'
p889
g44
tp890
(dp891
S'install-stem'
p892
S'vmlinuz'
p893
sS'configs'
p894
(lp895
sS'bootloaders'
p896
(lp897
S'grub-pc'
p898
aS'extlinux'
p899
aS'lilo'
p900
ass(S'description'
p901
g506
NS'sparc32'
p902
tp903
(dp904
S'hardware'
p905
S'uniprocessor sparc32 (sun4m)'
p906
ss(S'base'
p907
S'or1k'
p908
tp909
(dp910
S'kernel-arch'
p911
S'openrisc'
p912
sS'featuresets'
p913
(lp914
ss(S'base'
p915
g27
tp916
(dp917
S'kernel-arch'
p918
S's390'
p919
sg162
(lp920
g133
ass(S'description'
p921
g115
NS'loongson-2e'
p922
tp923
(dp924
S'hardware'
p925
S'Loongson 2E'
p926
sS'hardware-long'
p927
S'Lemote Loongson 2E systems'
p928
ss(S'description'
p929
g115
NS'loongson-2f'
p930
tp931
(dp932
S'hardware'
p933
S'Loongson 2F'
p934
sS'hardware-long'
p935
S'Lemote Loongson 2F systems'
p936
ss(S'image'
p937
g132
tp938
(dp939
S'suggests'
p940
S'mkvmlinuz'
p941
sS'configs'
p942
(lp943
sS'install-stem'
p944
S'vmlinux'
p945
ss(S'image'
p946
g73
tp947
(dp948
S'install-stem'
p949
S'vmlinux'
p950
ss(S'description'
p951
g454
NS'sh7751r'
p952
tp953
(dp954
S'hardware'
p955
S'sh7751r'
p956
sS'hardware-long'
p957
S'Renesas SH7751R R2D plus board'
p958
ss(S'description'
p959
g506
NS'sparc64'
p960
tp961
(dp962
S'hardware'
p963
S'uniprocessor 64-bit UltraSPARC'
p964
ss(g131
g506
g133
tp965
(dp966
g136
I01
sg137
(lp967
S'sparc64'
p968
aS'sparc64-smp'
p969
ass(S'image'
p970
g92
NS'sparc64'
p971
tp972
(dp973
S'configs'
p974
(lp975
S'kernelarch-sparc/config-up'
p976
ass(g131
g157
g133
tp977
(dp978
g136
I01
sg137
(lp979
S'alpha-generic'
p980
aS'alpha-smp'
p981
aS'alpha-legacy'
p982
ass(S'description'
p983
g44
g296
S'686-pae'
p984
tp985
(dp986
S'parts'
p987
(lp988
S'xen'
p989
ass(S'base'
p990
g132
tp991
(dp992
S'kernel-arch'
p993
S'powerpc'
p994
sg162
(lp995
g133
ass(S'base'
p996
S'x32'
p997
tp998
(dp999
S'kernel-arch'
p1000
S'x86'
p1001
sS'featuresets'
p1002
(lp1003
ss(S'relations'
p1004
g248
tp1005
(dp1006
S'gcc-4.8'
p1007
S'gcc-4.8 (>= 4.8.2-21)'
p1008
ss(S'description'
p1009
g157
NS'alpha-smp'
p1010
tp1011
(dp1012
S'hardware'
p1013
S'Alpha SMP'
p1014
sS'hardware-long'
p1015
S'DEC Alpha SMP systems with extended kernel start address (Wildfire, Titan, Marvel)'
p1016
ss(S'build'
p1017
g27
tp1018
(dp1019
S'image-file'
p1020
S'arch/s390/boot/image'
p1021
ss(g131
g73
g133
tp1022
(dp1023
g136
I01
sg137
(lp1024
S'r4k-ip22'
p1025
aS'r5k-ip32'
p1026
aS'sb1-bcm91250a'
p1027
aS'4kc-malta'
p1028
aS'5kc-malta'
p1029
aS'octeon'
p1030
ass(S'build'
p1031
g157
tp1032
(dp1033
S'image-file'
p1034
S'arch/alpha/boot/vmlinux.gz'
p1035
ss(S'description'
p1036
g123
NS'orion5x'
p1037
tp1038
(dp1039
S'hardware'
p1040
S'Marvell Orion'
p1041
sS'hardware-long'
p1042
S'Marvell Orion 5181, 5182 and 5281 based systems (QNAP TS-109/TS-209, etc)'
p1043
ss(S'image'
p1044
g184
tp1045
(dp1046
S'install-stem'
p1047
S'vmlinux'
p1048
ss(S'image'
p1049
g100
NS'loongson-3'
p1050
tp1051
(dp1052
S'configs'
p1053
(lp1054
S'kernelarch-mips/config.loongson-3'
p1055
ass(g131
g81
g133
tp1056
(dp1057
g136
I01
sg137
(lp1058
S'itanium'
p1059
aS'mckinley'
p1060
ass(S'build'
p1061
g454
tp1062
(dp1063
S'image-file'
p1064
S'arch/sh/boot/zImage'
p1065
ss(S'image'
p1066
g480
tp1067
(dp1068
S'suggests'
p1069
S'vmelilo, fdutils'
p1070
sS'install-stem'
p1071
S'vmlinuz'
p1072
ss(S'description'
p1073
g248
NS'powerpc'
p1074
tp1075
(dp1076
S'hardware'
p1077
S'uniprocessor 32-bit PowerPC'
p1078
ss(S'base'
p1079
g193
S'none'
p1080
tp1081
(dp1082
S'flavours'
p1083
(lp1084
S'arm64'
p1085
ass(S'build'
p1086
g184
tp1087
(dp1088
S'image-file'
p1089
S'vmlinux'
p1090
ss(S'build'
p1091
g365
NS's390x'
p1092
tp1093
(dp1094
S'debug-info'
p1095
I01
ss(S'base'
p1096
g177
tp1097
(dp1098
S'kernel-arch'
p1099
S'arm'
p1100
sg162
(lp1101
g133
ass(S'image'
p1102
g454
tp1103
(dp1104
S'suggests'
p1105
S'fdutils'
p1106
sS'install-stem'
p1107
S'vmlinuz'
p1108
ss(S'description'
p1109
g73
NS'r5k-ip32'
p1110
tp1111
(dp1112
S'hardware'
p1113
S'SGI IP32'
p1114
sS'hardware-long'
p1115
S'SGI IP32 systems (O2)'
p1116
ss(S'description'
p1117
g100
NS'loongson-2e'
p1118
tp1119
(dp1120
S'hardware'
p1121
S'Loongson 2E'
p1122
sS'hardware-long'
p1123
S'Lemote Loongson 2E systems'
p1124
ss(S'base'
p1125
g454
tp1126
(dp1127
S'kernel-arch'
p1128
S'sh'
p1129
sg162
(lp1130
g133
asS'compiler'
p1131
S'gcc-4.7'
p1132
ss(S'image'
p1133
g506
tp1134
(dp1135
S'suggests'
p1136
S'silo, fdutils'
p1137
sS'configs'
p1138
(lp1139
sS'install-stem'
p1140
S'vmlinuz'
p1141
ss(S'description'
p1142
tp1143
(dp1144
S'part-long-up'
p1145
S'This kernel is not suitable for SMP (multi-processor,\nmulti-core or hyper-threaded) systems.'
p1146
sS'part-long-xen'
p1147
S'This kernel also runs on a Xen hypervisor.\nIt supports both privileged (dom0) and unprivileged (domU) operation.'
p1148
ss(S'abi'
p1149
g44
tp1150
(dp1151
S'ignore-changes'
p1152
(lp1153
S'module:arch/x86/kvm/*'
p1154
ass(S'build'
p1155
g92
tp1156
(dp1157
S'image-file'
p1158
S'arch/sparc/boot/zImage'
p1159
ss(S'relations'
p1160
g177
tp1161
(dp1162
S'headers%gcc-4.8'
p1163
S'linux-compiler-gcc-4.8-arm'
p1164
ss(S'description'
p1165
g506
NS'sparc64-smp'
p1166
tp1167
(dp1168
S'hardware'
p1169
S'multiprocessor 64-bit UltraSPARC'
p1170
ss(S'image'
p1171
g5
NS'amd64'
p1172
tp1173
(dp1174
S'configs'
p1175
(lp1176
S'kernelarch-x86/config-arch-64'
p1177
ass(S'description'
p1178
g5
NS'amd64'
p1179
tp1180
(dp1181
S'hardware'
p1182
S'64-bit PCs'
p1183
sS'hardware-long'
p1184
S'PCs with AMD64, Intel 64 or VIA Nano processors'
p1185
ss(S'description'
p1186
g100
NS'loongson-2f'
p1187
tp1188
(dp1189
S'hardware'
p1190
S'Loongson 2F'
p1191
sS'hardware-long'
p1192
S'Lemote Loongson 2F systems'
p1193
ss(S'image'
p1194
g92
tp1195
(dp1196
S'suggests'
p1197
S'silo, fdutils'
p1198
sS'configs'
p1199
(lp1200
sS'install-stem'
p1201
S'vmlinuz'
p1202
ss(S'description'
p1203
g44
NS'486'
p1204
tp1205
(dp1206
S'hardware'
p1207
S'older PCs'
p1208
sS'parts'
p1209
(lp1210
S'up'
p1211
asS'hardware-long'
p1212
S'PCs with a single processor not supporting PAE'
p1213
ss(S'relations'
p1214
g27
tp1215
(dp1216
S'headers%gcc-4.8'
p1217
S'linux-compiler-gcc-4.8-s390'
p1218
ss(S'description'
p1219
g365
NS's390x'
p1220
tp1221
(dp1222
S'hardware'
p1223
S'IBM zSeries'
p1224
ss(S'base'
p1225
g248
tp1226
(dp1227
S'kernel-arch'
p1228
S'powerpc'
p1229
sg162
(lp1230
g133
ass(S'description'
p1231
g115
NS'loongson-3'
p1232
tp1233
(dp1234
S'hardware'
p1235
S'Loongson 3A/3B'
p1236
sS'hardware-long'
p1237
S'Loongson 3A or 3B based systems (e.g. from Loongson or Lemote)'
p1238
ss(S'description'
p1239
g115
NS'4kc-malta'
p1240
tp1241
(dp1242
S'hardware'
p1243
S'MIPS Malta'
p1244
sS'hardware-long'
p1245
S'MIPS Malta boards'
p1246
ss(S'image'
p1247
g115
NS'loongson-3'
p1248
tp1249
(dp1250
S'configs'
p1251
(lp1252
S'kernelarch-mips/config.loongson-3'
p1253
ass(S'image'
p1254
g454
NS'sh7785lcr'
p1255
tp1256
(dp1257
S'check-size'
p1258
S'4194304'
p1259
sS'recommends'
p1260
S'uboot-mkimage'
p1261
ss(S'image'
p1262
g184
NS'5kc-malta'
p1263
tp1264
(dp1265
S'configs'
p1266
(lp1267
S'kernelarch-mips/config.5kc-malta'
p1268
ass(S'description'
p1269
g18
NS'parisc'
p1270
tp1271
(dp1272
S'hardware'
p1273
S'32-bit PA-RISC'
p1274
sS'hardware-long'
p1275
S'HP PA-RISC 32-bit systems with max 4 GB RAM'
p1276
ss(S'build'
p1277
g365
tp1278
(dp1279
S'image-file'
p1280
S'arch/s390/boot/image'
p1281
ss(S'image'
p1282
g73
NS'r5k-ip32'
p1283
tp1284
(dp1285
S'configs'
p1286
(lp1287
S'kernelarch-mips/config.r5k-ip32'
p1288
ass(S'description'
p1289
g100
NS'octeon'
p1290
tp1291
(dp1292
S'hardware'
p1293
S'Octeon'
p1294
sS'hardware-long'
p1295
S'Cavium Networks Octeon'
p1296
ss(S'image'
p1297
g177
tp1298
(dp1299
S'suggests'
p1300
S'fdutils'
p1301
sS'configs'
p1302
(lp1303
S'kernelarch-arm/config'
p1304
aS'armhf/config'
p1305
asS'install-stem'
p1306
S'vmlinuz'
p1307
ss(S'abi'
p1308
tp1309
(dp1310
S'abiname'
p1311
S'2'
p1312
sS'ignore-changes'
p1313
(lp1314
ss(S'relations'
p1315
g132
tp1316
(dp1317
S'gcc-4.8'
p1318
S'gcc-4.8 (>= 4.8.2-21)'
p1319
ss(g131
g65
g133
tp1320
(dp1321
g136
I01
sg137
(lp1322
S'powerpcspe'
p1323
ass(S'description'
p1324
g184
NS'5kc-malta'
p1325
tp1326
(dp1327
S'hardware'
p1328
S'MIPS Malta'
p1329
sS'hardware-long'
p1330
S'MIPS Malta boards'
p1331
ss(g131
g480
g133
tp1332
(dp1333
g136
I01
sg137
(lp1334
S'm68k'
p1335
ass(S'image'
p1336
g132
NS'powerpc64'
p1337
tp1338
(dp1339
S'configs'
p1340
(lp1341
S'kernelarch-powerpc/config-arch-64'
p1342
aS'kernelarch-powerpc/config-arch-64-be'
p1343
ass(S'description'
p1344
g35
NS'powerpc64le'
p1345
tp1346
(dp1347
S'hardware'
p1348
S'Little-endian 64-bit PowerPC'
p1349
ss(S'image'
p1350
g100
NS'loongson-2e'
p1351
tp1352
(dp1353
S'configs'
p1354
(lp1355
S'kernelarch-mips/config.loongson-2e'
p1356
ass(S'base'
p1357
g44
g296
tp1358
(dp1359
S'flavours'
p1360
(lp1361
S'486'
p1362
aS'686-pae'
p1363
aS'amd64'
p1364
ass(S'base'
p1365
tp1366
(dp1367
S'arches'
p1368
(lp1369
S'alpha'
p1370
aS'amd64'
p1371
aS'arm64'
p1372
aS'armel'
p1373
aS'armhf'
p1374
aS'hppa'
p1375
aS'i386'
p1376
aS'ia64'
p1377
aS'm68k'
p1378
aS'mips'
p1379
aS'mipsel'
p1380
aS'mips64'
p1381
aS'mips64el'
p1382
aS'or1k'
p1383
aS'powerpc'
p1384
aS'powerpcspe'
p1385
aS'ppc64'
p1386
aS'ppc64el'
p1387
aS's390'
p1388
aS's390x'
p1389
aS'sh4'
p1390
aS'sparc'
p1391
aS'sparc64'
p1392
aS'x32'
p1393
asS'featuresets'
p1394
(lp1395
S'none'
p1396
aS'rt'
p1397
asS'compiler'
p1398
S'gcc-4.8'
p1399
ss(S'description'
p1400
g248
NS'powerpc64'
p1401
tp1402
(dp1403
S'hardware'
p1404
S'64-bit PowerPC'
p1405
ss(S'description'
p1406
g44
NS'amd64'
p1407
tp1408
(dp1409
S'hardware'
p1410
S'64-bit PCs'
p1411
sS'parts'
p1412
(lp1413
S'xen'
p1414
asS'hardware-long'
p1415
S'PCs with AMD64, Intel 64 or VIA Nano processors'
p1416
ss(S'build'
p1417
g480
tp1418
(dp1419
S'image-file'
p1420
S'vmlinux.gz'
p1421
ss(S'build'
p1422
g123
tp1423
(dp1424
S'image-file'
p1425
S'arch/arm/boot/zImage'
p1426
ss(g131
g248
g133
tp1427
(dp1428
g136
I01
sg137
(lp1429
S'powerpc'
p1430
aS'powerpc-smp'
p1431
aS'powerpc64'
p1432
ass(S'image'
p1433
g100
tp1434
(dp1435
S'install-stem'
p1436
S'vmlinux'
p1437
ss(S'base'
p1438
g35
tp1439
(dp1440
S'kernel-arch'
p1441
S'powerpc'
p1442
sg162
(lp1443
g133
ass(S'base'
p1444
g100
tp1445
(dp1446
S'kernel-arch'
p1447
S'mips'
p1448
sg162
(lp1449
g133
ass(S'base'
p1450
g480
tp1451
(dp1452
S'kernel-arch'
p1453
S'm68k'
p1454
sg162
(lp1455
g133
asS'cflags'
p1456
S'-ffreestanding'
p1457
sS'compiler'
p1458
S'gcc-4.8'
p1459
ss(S'image'
p1460
tp1461
(dp1462
S'initramfs-generators'
p1463
(lp1464
S'initramfs-tools'
p1465
aS'initramfs-fallback'
p1466
asS'type'
p1467
S'plain'
p1468
ss(S'image'
p1469
g73
NS'4kc-malta'
p1470
tp1471
(dp1472
S'configs'
p1473
(lp1474
S'kernelarch-mips/config.4kc-malta'
p1475
ass(S'image'
p1476
g73
NS'r4k-ip22'
p1477
tp1478
(dp1479
S'configs'
p1480
(lp1481
S'kernelarch-mips/config.r4k-ip22'
p1482
ass(S'relations'
p1483
g123
tp1484
(dp1485
S'headers%gcc-4.8'
p1486
S'linux-compiler-gcc-4.8-arm'
p1487
ss(S'description'
p1488
g177
NS'armmp'
p1489
tp1490
(dp1491
S'hardware'
p1492
S'ARMv7 multiplatform compatible SoCs'
p1493
sS'hardware-long'
p1494
S'ARMv7 multiplatform kernel for Marvell Armada 370/xp, Freescale iMX5x/iMX6'
p1495
ss(S'build'
p1496
g27
NS's390x'
p1497
tp1498
(dp1499
S'debug-info'
p1500
I01
ss(g131
g92
g133
tp1501
(dp1502
g136
I01
sg137
(lp1503
S'sparc64'
p1504
aS'sparc64-smp'
p1505
ass(S'image'
p1506
g18
tp1507
(dp1508
S'suggests'
p1509
S'palo'
p1510
sS'install-stem'
p1511
S'vmlinux'
p1512
ss(S'abi'
p1513
NS'rt'
p1514
tp1515
(dp1516
S'ignore-changes'
p1517
(lp1518
S'*'
p1519
ass(S'image'
p1520
g506
NS'sparc32'
p1521
tp1522
(dp1523
S'image-postproc'
p1524
S'sparc32-image-postproc'
p1525
ss(S'description'
p1526
Ng1514
tp1527
(dp1528
S'part-long-rt'
p1529
S'This kernel includes the PREEMPT_RT realtime patch set.'
p1530
sS'parts'
p1531
(lp1532
S'rt'
p1533
asS'part-short-rt'
p1534
S'PREEMPT_RT'
p1535
ss(S'image'
p1536
g27
tp1537
(dp1538
S'install-stem'
p1539
S'vmlinuz'
p1540
sS'configs'
p1541
(lp1542
sS'bootloaders'
p1543
(lp1544
S's390-tools'
p1545
ass(S'image'
p1546
g193
tp1547
(dp1548
S'install-stem'
p1549
S'vmlinuz'
p1550
ss(S'image'
p1551
g506
NS'sparc64-smp'
p1552
tp1553
(dp1554
S'configs'
p1555
(lp1556
S'kernelarch-sparc/config-smp'
p1557
ass(S'description'
p1558
g123
NS'ixp4xx'
p1559
tp1560
(dp1561
S'hardware'
p1562
S'IXP4xx'
p1563
sS'hardware-long'
p1564
S'IXP4xx based systems (Linksys NSLU2, etc)'
p1565
ss(S'build'
p1566
g44
tp1567
(dp1568
S'image-file'
p1569
S'arch/x86/boot/bzImage'
p1570
ss(g131
g35
g133
tp1571
(dp1572
g136
I01
sg137
(lp1573
S'powerpc64le'
p1574
ass(S'description'
p1575
g18
NS'parisc64-smp'
p1576
tp1577
(dp1578
S'hardware'
p1579
S'multiprocessor 64-bit PA-RISC'
p1580
sS'hardware-long'
p1581
S'HP PA-RISC 64-bit SMP systems with support for more than 4 GB RAM'
p1582
sstp1583
Rp1584
.